
hello-world:     file format elf64-littleriscv


Disassembly of section .text:

00000000000100e8 <exit>:
   100e8:	1141                	add	sp,sp,-16
   100ea:	4581                	li	a1,0
   100ec:	e022                	sd	s0,0(sp)
   100ee:	e406                	sd	ra,8(sp)
   100f0:	842a                	mv	s0,a0
   100f2:	00e020ef          	jal	12100 <__call_exitprocs>
   100f6:	7481b503          	ld	a0,1864(gp) # 1fab8 <_global_impure_ptr>
   100fa:	6d3c                	ld	a5,88(a0)
   100fc:	c391                	beqz	a5,10100 <exit+0x18>
   100fe:	9782                	jalr	a5
   10100:	8522                	mv	a0,s0
   10102:	1be0b0ef          	jal	1b2c0 <_exit>

0000000000010106 <register_fini>:
   10106:	00000793          	li	a5,0
   1010a:	c799                	beqz	a5,10118 <register_fini+0x12>
   1010c:	00002517          	auipc	a0,0x2
   10110:	55250513          	add	a0,a0,1362 # 1265e <__libc_fini_array>
   10114:	0ae0206f          	j	121c2 <atexit>
   10118:	8082                	ret

000000000001011a <_start>:
   1011a:	0000f197          	auipc	gp,0xf
   1011e:	25618193          	add	gp,gp,598 # 1f370 <__global_pointer$>
   10122:	77018513          	add	a0,gp,1904 # 1fae0 <__malloc_max_total_mem>
   10126:	00010617          	auipc	a2,0x10
   1012a:	a4a60613          	add	a2,a2,-1462 # 1fb70 <__BSS_END__>
   1012e:	8e09                	sub	a2,a2,a0
   10130:	4581                	li	a1,0
   10132:	12c000ef          	jal	1025e <memset>
   10136:	00002517          	auipc	a0,0x2
   1013a:	08c50513          	add	a0,a0,140 # 121c2 <atexit>
   1013e:	c519                	beqz	a0,1014c <_start+0x32>
   10140:	00002517          	auipc	a0,0x2
   10144:	51e50513          	add	a0,a0,1310 # 1265e <__libc_fini_array>
   10148:	07a020ef          	jal	121c2 <atexit>
   1014c:	0a8000ef          	jal	101f4 <__libc_init_array>
   10150:	4502                	lw	a0,0(sp)
   10152:	002c                	add	a1,sp,8
   10154:	4601                	li	a2,0
   10156:	056000ef          	jal	101ac <main>
   1015a:	b779                	j	100e8 <exit>

000000000001015c <__do_global_dtors_aux>:
   1015c:	1141                	add	sp,sp,-16
   1015e:	e022                	sd	s0,0(sp)
   10160:	7a018413          	add	s0,gp,1952 # 1fb10 <completed.1>
   10164:	00044783          	lbu	a5,0(s0)
   10168:	e406                	sd	ra,8(sp)
   1016a:	ef99                	bnez	a5,10188 <__do_global_dtors_aux+0x2c>
   1016c:	00000793          	li	a5,0
   10170:	cb89                	beqz	a5,10182 <__do_global_dtors_aux+0x26>
   10172:	0000e517          	auipc	a0,0xe
   10176:	7ee50513          	add	a0,a0,2030 # 1e960 <__EH_FRAME_BEGIN__>
   1017a:	00000097          	auipc	ra,0x0
   1017e:	000000e7          	jalr	zero # 0 <exit-0x100e8>
   10182:	4785                	li	a5,1
   10184:	00f40023          	sb	a5,0(s0)
   10188:	60a2                	ld	ra,8(sp)
   1018a:	6402                	ld	s0,0(sp)
   1018c:	0141                	add	sp,sp,16
   1018e:	8082                	ret

0000000000010190 <frame_dummy>:
   10190:	00000793          	li	a5,0
   10194:	cb99                	beqz	a5,101aa <frame_dummy+0x1a>
   10196:	7a818593          	add	a1,gp,1960 # 1fb18 <object.0>
   1019a:	0000e517          	auipc	a0,0xe
   1019e:	7c650513          	add	a0,a0,1990 # 1e960 <__EH_FRAME_BEGIN__>
   101a2:	00000317          	auipc	t1,0x0
   101a6:	00000067          	jr	zero # 0 <exit-0x100e8>
   101aa:	8082                	ret

00000000000101ac <main>:
   101ac:	fe010113          	add	sp,sp,-32
   101b0:	00113c23          	sd	ra,24(sp)
   101b4:	00813823          	sd	s0,16(sp)
   101b8:	02010413          	add	s0,sp,32
   101bc:	00100793          	li	a5,1
   101c0:	fef42623          	sw	a5,-20(s0)
   101c4:	fec42783          	lw	a5,-20(s0)
   101c8:	0017879b          	addw	a5,a5,1
   101cc:	fef42423          	sw	a5,-24(s0)
   101d0:	0001d7b7          	lui	a5,0x1d
   101d4:	a6078513          	add	a0,a5,-1440 # 1ca60 <__clzdi2+0x42>
   101d8:	152000ef          	jal	1032a <printf>
   101dc:	00000793          	li	a5,0
   101e0:	00078513          	mv	a0,a5
   101e4:	01813083          	ld	ra,24(sp)
   101e8:	01013403          	ld	s0,16(sp)
   101ec:	02010113          	add	sp,sp,32
   101f0:	00008067          	ret

00000000000101f4 <__libc_init_array>:
   101f4:	1101                	add	sp,sp,-32
   101f6:	e822                	sd	s0,16(sp)
   101f8:	e04a                	sd	s2,0(sp)
   101fa:	0000e797          	auipc	a5,0xe
   101fe:	76a78793          	add	a5,a5,1898 # 1e964 <__preinit_array_end>
   10202:	0000e417          	auipc	s0,0xe
   10206:	76240413          	add	s0,s0,1890 # 1e964 <__preinit_array_end>
   1020a:	ec06                	sd	ra,24(sp)
   1020c:	e426                	sd	s1,8(sp)
   1020e:	40878933          	sub	s2,a5,s0
   10212:	00878b63          	beq	a5,s0,10228 <__libc_init_array+0x34>
   10216:	40395913          	sra	s2,s2,0x3
   1021a:	4481                	li	s1,0
   1021c:	601c                	ld	a5,0(s0)
   1021e:	0485                	add	s1,s1,1
   10220:	0421                	add	s0,s0,8
   10222:	9782                	jalr	a5
   10224:	ff24ece3          	bltu	s1,s2,1021c <__libc_init_array+0x28>
   10228:	0000e797          	auipc	a5,0xe
   1022c:	75078793          	add	a5,a5,1872 # 1e978 <__do_global_dtors_aux_fini_array_entry>
   10230:	0000e417          	auipc	s0,0xe
   10234:	73840413          	add	s0,s0,1848 # 1e968 <__init_array_start>
   10238:	40878933          	sub	s2,a5,s0
   1023c:	40395913          	sra	s2,s2,0x3
   10240:	00878963          	beq	a5,s0,10252 <__libc_init_array+0x5e>
   10244:	4481                	li	s1,0
   10246:	601c                	ld	a5,0(s0)
   10248:	0485                	add	s1,s1,1
   1024a:	0421                	add	s0,s0,8
   1024c:	9782                	jalr	a5
   1024e:	ff24ece3          	bltu	s1,s2,10246 <__libc_init_array+0x52>
   10252:	60e2                	ld	ra,24(sp)
   10254:	6442                	ld	s0,16(sp)
   10256:	64a2                	ld	s1,8(sp)
   10258:	6902                	ld	s2,0(sp)
   1025a:	6105                	add	sp,sp,32
   1025c:	8082                	ret

000000000001025e <memset>:
   1025e:	433d                	li	t1,15
   10260:	872a                	mv	a4,a0
   10262:	02c37163          	bgeu	t1,a2,10284 <memset+0x26>
   10266:	00f77793          	and	a5,a4,15
   1026a:	e3c1                	bnez	a5,102ea <memset+0x8c>
   1026c:	e1bd                	bnez	a1,102d2 <memset+0x74>
   1026e:	ff067693          	and	a3,a2,-16
   10272:	8a3d                	and	a2,a2,15
   10274:	96ba                	add	a3,a3,a4
   10276:	e30c                	sd	a1,0(a4)
   10278:	e70c                	sd	a1,8(a4)
   1027a:	0741                	add	a4,a4,16
   1027c:	fed76de3          	bltu	a4,a3,10276 <memset+0x18>
   10280:	e211                	bnez	a2,10284 <memset+0x26>
   10282:	8082                	ret
   10284:	40c306b3          	sub	a3,t1,a2
   10288:	068a                	sll	a3,a3,0x2
   1028a:	00000297          	auipc	t0,0x0
   1028e:	9696                	add	a3,a3,t0
   10290:	00a68067          	jr	10(a3)
   10294:	00b70723          	sb	a1,14(a4)
   10298:	00b706a3          	sb	a1,13(a4)
   1029c:	00b70623          	sb	a1,12(a4)
   102a0:	00b705a3          	sb	a1,11(a4)
   102a4:	00b70523          	sb	a1,10(a4)
   102a8:	00b704a3          	sb	a1,9(a4)
   102ac:	00b70423          	sb	a1,8(a4)
   102b0:	00b703a3          	sb	a1,7(a4)
   102b4:	00b70323          	sb	a1,6(a4)
   102b8:	00b702a3          	sb	a1,5(a4)
   102bc:	00b70223          	sb	a1,4(a4)
   102c0:	00b701a3          	sb	a1,3(a4)
   102c4:	00b70123          	sb	a1,2(a4)
   102c8:	00b700a3          	sb	a1,1(a4)
   102cc:	00b70023          	sb	a1,0(a4)
   102d0:	8082                	ret
   102d2:	0ff5f593          	zext.b	a1,a1
   102d6:	00859693          	sll	a3,a1,0x8
   102da:	8dd5                	or	a1,a1,a3
   102dc:	01059693          	sll	a3,a1,0x10
   102e0:	8dd5                	or	a1,a1,a3
   102e2:	02059693          	sll	a3,a1,0x20
   102e6:	8dd5                	or	a1,a1,a3
   102e8:	b759                	j	1026e <memset+0x10>
   102ea:	00279693          	sll	a3,a5,0x2
   102ee:	00000297          	auipc	t0,0x0
   102f2:	9696                	add	a3,a3,t0
   102f4:	8286                	mv	t0,ra
   102f6:	fa2680e7          	jalr	-94(a3)
   102fa:	8096                	mv	ra,t0
   102fc:	17c1                	add	a5,a5,-16
   102fe:	8f1d                	sub	a4,a4,a5
   10300:	963e                	add	a2,a2,a5
   10302:	f8c371e3          	bgeu	t1,a2,10284 <memset+0x26>
   10306:	b79d                	j	1026c <memset+0xe>

0000000000010308 <_printf_r>:
   10308:	715d                	add	sp,sp,-80
   1030a:	f032                	sd	a2,32(sp)
   1030c:	f436                	sd	a3,40(sp)
   1030e:	f83a                	sd	a4,48(sp)
   10310:	fc3e                	sd	a5,56(sp)
   10312:	e0c2                	sd	a6,64(sp)
   10314:	e4c6                	sd	a7,72(sp)
   10316:	862e                	mv	a2,a1
   10318:	690c                	ld	a1,16(a0)
   1031a:	1014                	add	a3,sp,32
   1031c:	ec06                	sd	ra,24(sp)
   1031e:	e436                	sd	a3,8(sp)
   10320:	036000ef          	jal	10356 <_vfprintf_r>
   10324:	60e2                	ld	ra,24(sp)
   10326:	6161                	add	sp,sp,80
   10328:	8082                	ret

000000000001032a <printf>:
   1032a:	711d                	add	sp,sp,-96
   1032c:	f832                	sd	a2,48(sp)
   1032e:	fc36                	sd	a3,56(sp)
   10330:	7581b303          	ld	t1,1880(gp) # 1fac8 <_impure_ptr>
   10334:	f42e                	sd	a1,40(sp)
   10336:	e0ba                	sd	a4,64(sp)
   10338:	e4be                	sd	a5,72(sp)
   1033a:	e8c2                	sd	a6,80(sp)
   1033c:	ecc6                	sd	a7,88(sp)
   1033e:	01033583          	ld	a1,16(t1) # 101b2 <main+0x6>
   10342:	1034                	add	a3,sp,40
   10344:	862a                	mv	a2,a0
   10346:	851a                	mv	a0,t1
   10348:	ec06                	sd	ra,24(sp)
   1034a:	e436                	sd	a3,8(sp)
   1034c:	00a000ef          	jal	10356 <_vfprintf_r>
   10350:	60e2                	ld	ra,24(sp)
   10352:	6125                	add	sp,sp,96
   10354:	8082                	ret

0000000000010356 <_vfprintf_r>:
   10356:	d9010113          	add	sp,sp,-624
   1035a:	26113423          	sd	ra,616(sp)
   1035e:	26813023          	sd	s0,608(sp)
   10362:	25213823          	sd	s2,592(sp)
   10366:	e02e                	sd	a1,0(sp)
   10368:	8932                	mv	s2,a2
   1036a:	ec36                	sd	a3,24(sp)
   1036c:	24913c23          	sd	s1,600(sp)
   10370:	25313423          	sd	s3,584(sp)
   10374:	25413023          	sd	s4,576(sp)
   10378:	23513c23          	sd	s5,568(sp)
   1037c:	23613823          	sd	s6,560(sp)
   10380:	23713423          	sd	s7,552(sp)
   10384:	23813023          	sd	s8,544(sp)
   10388:	21913c23          	sd	s9,536(sp)
   1038c:	21a13823          	sd	s10,528(sp)
   10390:	21b13423          	sd	s11,520(sp)
   10394:	842a                	mv	s0,a0
   10396:	e0aa                	sd	a0,64(sp)
   10398:	06f040ef          	jal	14c06 <_localeconv_r>
   1039c:	611c                	ld	a5,0(a0)
   1039e:	853e                	mv	a0,a5
   103a0:	e8be                	sd	a5,80(sp)
   103a2:	038060ef          	jal	163da <strlen>
   103a6:	e4aa                	sd	a0,72(sp)
   103a8:	f982                	sd	zero,240(sp)
   103aa:	fd82                	sd	zero,248(sp)
   103ac:	c401                	beqz	s0,103b4 <_vfprintf_r+0x5e>
   103ae:	4838                	lw	a4,80(s0)
   103b0:	46070e63          	beqz	a4,1082c <_vfprintf_r+0x4d6>
   103b4:	6782                	ld	a5,0(sp)
   103b6:	01079703          	lh	a4,16(a5)
   103ba:	03271693          	sll	a3,a4,0x32
   103be:	0206c163          	bltz	a3,103e0 <_vfprintf_r+0x8a>
   103c2:	0ac7a683          	lw	a3,172(a5)
   103c6:	6609                	lui	a2,0x2
   103c8:	8f51                	or	a4,a4,a2
   103ca:	7679                	lui	a2,0xffffe
   103cc:	0107171b          	sllw	a4,a4,0x10
   103d0:	167d                	add	a2,a2,-1 # ffffffffffffdfff <__BSS_END__+0xfffffffffffde48f>
   103d2:	4107571b          	sraw	a4,a4,0x10
   103d6:	8ef1                	and	a3,a3,a2
   103d8:	00e79823          	sh	a4,16(a5)
   103dc:	0ad7a623          	sw	a3,172(a5)
   103e0:	00877693          	and	a3,a4,8
   103e4:	24068f63          	beqz	a3,10642 <_vfprintf_r+0x2ec>
   103e8:	6782                	ld	a5,0(sp)
   103ea:	6f94                	ld	a3,24(a5)
   103ec:	24068b63          	beqz	a3,10642 <_vfprintf_r+0x2ec>
   103f0:	8b69                	and	a4,a4,26
   103f2:	46a9                	li	a3,10
   103f4:	26d70563          	beq	a4,a3,1065e <_vfprintf_r+0x308>
   103f8:	8aca                	mv	s5,s2
   103fa:	000ac703          	lbu	a4,0(s5)
   103fe:	031c                	add	a5,sp,384
   10400:	e23e                	sd	a5,256(sp)
   10402:	ea02                	sd	zero,272(sp)
   10404:	10012423          	sw	zero,264(sp)
   10408:	f402                	sd	zero,40(sp)
   1040a:	ec82                	sd	zero,88(sp)
   1040c:	f082                	sd	zero,96(sp)
   1040e:	f482                	sd	zero,104(sp)
   10410:	f882                	sd	zero,112(sp)
   10412:	fc82                	sd	zero,120(sp)
   10414:	e402                	sd	zero,8(sp)
   10416:	6486                	ld	s1,64(sp)
   10418:	4dc1                	li	s11,16
   1041a:	843e                	mv	s0,a5
   1041c:	1c070363          	beqz	a4,105e2 <_vfprintf_r+0x28c>
   10420:	89d6                	mv	s3,s5
   10422:	02500693          	li	a3,37
   10426:	24d70963          	beq	a4,a3,10678 <_vfprintf_r+0x322>
   1042a:	0019c703          	lbu	a4,1(s3)
   1042e:	0985                	add	s3,s3,1
   10430:	fb7d                	bnez	a4,10426 <_vfprintf_r+0xd0>
   10432:	41598b3b          	subw	s6,s3,s5
   10436:	1a0b0663          	beqz	s6,105e2 <_vfprintf_r+0x28c>
   1043a:	10812703          	lw	a4,264(sp)
   1043e:	6d52                	ld	s10,272(sp)
   10440:	01543023          	sd	s5,0(s0)
   10444:	0017069b          	addw	a3,a4,1
   10448:	9d5a                	add	s10,s10,s6
   1044a:	01643423          	sd	s6,8(s0)
   1044e:	ea6a                	sd	s10,272(sp)
   10450:	10d12423          	sw	a3,264(sp)
   10454:	471d                	li	a4,7
   10456:	0441                	add	s0,s0,16
   10458:	22d74763          	blt	a4,a3,10686 <_vfprintf_r+0x330>
   1045c:	67a2                	ld	a5,8(sp)
   1045e:	0009c703          	lbu	a4,0(s3)
   10462:	016787bb          	addw	a5,a5,s6
   10466:	e43e                	sd	a5,8(sp)
   10468:	16070d63          	beqz	a4,105e2 <_vfprintf_r+0x28c>
   1046c:	5e7d                	li	t3,-1
   1046e:	0019ce83          	lbu	t4,1(s3)
   10472:	0c0107a3          	sb	zero,207(sp)
   10476:	0985                	add	s3,s3,1
   10478:	4b81                	li	s7,0
   1047a:	4901                	li	s2,0
   1047c:	05a00b13          	li	s6,90
   10480:	8a72                	mv	s4,t3
   10482:	0985                	add	s3,s3,1
   10484:	2e81                	sext.w	t4,t4
   10486:	fe0e879b          	addw	a5,t4,-32
   1048a:	0007871b          	sext.w	a4,a5
   1048e:	04eb6963          	bltu	s6,a4,104e0 <_vfprintf_r+0x18a>
   10492:	02079713          	sll	a4,a5,0x20
   10496:	01e75793          	srl	a5,a4,0x1e
   1049a:	0000c717          	auipc	a4,0xc
   1049e:	63270713          	add	a4,a4,1586 # 1cacc <__clzdi2+0xae>
   104a2:	97ba                	add	a5,a5,a4
   104a4:	439c                	lw	a5,0(a5)
   104a6:	97ba                	add	a5,a5,a4
   104a8:	8782                	jr	a5
   104aa:	4b81                	li	s7,0
   104ac:	46a5                	li	a3,9
   104ae:	0009c703          	lbu	a4,0(s3)
   104b2:	002b979b          	sllw	a5,s7,0x2
   104b6:	01778bbb          	addw	s7,a5,s7
   104ba:	fd0e8e9b          	addw	t4,t4,-48
   104be:	001b9b9b          	sllw	s7,s7,0x1
   104c2:	fd07079b          	addw	a5,a4,-48
   104c6:	017e8bbb          	addw	s7,t4,s7
   104ca:	0985                	add	s3,s3,1
   104cc:	00070e9b          	sext.w	t4,a4
   104d0:	fcf6ffe3          	bgeu	a3,a5,104ae <_vfprintf_r+0x158>
   104d4:	fe0e879b          	addw	a5,t4,-32
   104d8:	0007871b          	sext.w	a4,a5
   104dc:	faeb7be3          	bgeu	s6,a4,10492 <_vfprintf_r+0x13c>
   104e0:	100e8163          	beqz	t4,105e2 <_vfprintf_r+0x28c>
   104e4:	11d10c23          	sb	t4,280(sp)
   104e8:	0c0107a3          	sb	zero,207(sp)
   104ec:	4b05                	li	s6,1
   104ee:	4c85                	li	s9,1
   104f0:	11810a93          	add	s5,sp,280
   104f4:	e802                	sd	zero,16(sp)
   104f6:	4e01                	li	t3,0
   104f8:	fc02                	sd	zero,56(sp)
   104fa:	f802                	sd	zero,48(sp)
   104fc:	f002                	sd	zero,32(sp)
   104fe:	00297293          	and	t0,s2,2
   10502:	00028363          	beqz	t0,10508 <_vfprintf_r+0x1b2>
   10506:	2b09                	addw	s6,s6,2
   10508:	08497c13          	and	s8,s2,132
   1050c:	000c1663          	bnez	s8,10518 <_vfprintf_r+0x1c2>
   10510:	416b8d3b          	subw	s10,s7,s6
   10514:	05a04ae3          	bgtz	s10,10d68 <_vfprintf_r+0xa12>
   10518:	0cf14603          	lbu	a2,207(sp)
   1051c:	6d52                	ld	s10,272(sp)
   1051e:	c21d                	beqz	a2,10544 <_vfprintf_r+0x1ee>
   10520:	10812603          	lw	a2,264(sp)
   10524:	0cf10593          	add	a1,sp,207
   10528:	e00c                	sd	a1,0(s0)
   1052a:	2605                	addw	a2,a2,1
   1052c:	4585                	li	a1,1
   1052e:	0d05                	add	s10,s10,1
   10530:	e40c                	sd	a1,8(s0)
   10532:	10c12423          	sw	a2,264(sp)
   10536:	0006059b          	sext.w	a1,a2
   1053a:	ea6a                	sd	s10,272(sp)
   1053c:	461d                	li	a2,7
   1053e:	0441                	add	s0,s0,16
   10540:	20b64963          	blt	a2,a1,10752 <_vfprintf_r+0x3fc>
   10544:	02028363          	beqz	t0,1056a <_vfprintf_r+0x214>
   10548:	10812603          	lw	a2,264(sp)
   1054c:	4589                	li	a1,2
   1054e:	0d09                	add	s10,s10,2
   10550:	2605                	addw	a2,a2,1
   10552:	099c                	add	a5,sp,208
   10554:	e40c                	sd	a1,8(s0)
   10556:	e01c                	sd	a5,0(s0)
   10558:	0006059b          	sext.w	a1,a2
   1055c:	10c12423          	sw	a2,264(sp)
   10560:	ea6a                	sd	s10,272(sp)
   10562:	461d                	li	a2,7
   10564:	0441                	add	s0,s0,16
   10566:	0cb64ae3          	blt	a2,a1,10e3a <_vfprintf_r+0xae4>
   1056a:	08000613          	li	a2,128
   1056e:	6acc0d63          	beq	s8,a2,10c28 <_vfprintf_r+0x8d2>
   10572:	419e0a3b          	subw	s4,t3,s9
   10576:	75404863          	bgtz	s4,10cc6 <_vfprintf_r+0x970>
   1057a:	10097613          	and	a2,s2,256
   1057e:	54061f63          	bnez	a2,10adc <_vfprintf_r+0x786>
   10582:	10812583          	lw	a1,264(sp)
   10586:	01ac8633          	add	a2,s9,s10
   1058a:	01543023          	sd	s5,0(s0)
   1058e:	0015869b          	addw	a3,a1,1
   10592:	01943423          	sd	s9,8(s0)
   10596:	ea32                	sd	a2,272(sp)
   10598:	10d12423          	sw	a3,264(sp)
   1059c:	479d                	li	a5,7
   1059e:	26d7cd63          	blt	a5,a3,10818 <_vfprintf_r+0x4c2>
   105a2:	0441                	add	s0,s0,16
   105a4:	00497913          	and	s2,s2,4
   105a8:	00090663          	beqz	s2,105b4 <_vfprintf_r+0x25e>
   105ac:	416b893b          	subw	s2,s7,s6
   105b0:	0b2043e3          	bgtz	s2,10e56 <_vfprintf_r+0xb00>
   105b4:	87de                	mv	a5,s7
   105b6:	016bd363          	bge	s7,s6,105bc <_vfprintf_r+0x266>
   105ba:	87da                	mv	a5,s6
   105bc:	6722                	ld	a4,8(sp)
   105be:	9fb9                	addw	a5,a5,a4
   105c0:	e43e                	sd	a5,8(sp)
   105c2:	78061563          	bnez	a2,10d4c <_vfprintf_r+0x9f6>
   105c6:	67c2                	ld	a5,16(sp)
   105c8:	10012423          	sw	zero,264(sp)
   105cc:	c789                	beqz	a5,105d6 <_vfprintf_r+0x280>
   105ce:	65c2                	ld	a1,16(sp)
   105d0:	8526                	mv	a0,s1
   105d2:	198020ef          	jal	1276a <_free_r>
   105d6:	0300                	add	s0,sp,384
   105d8:	8ace                	mv	s5,s3
   105da:	000ac703          	lbu	a4,0(s5)
   105de:	e40711e3          	bnez	a4,10420 <_vfprintf_r+0xca>
   105e2:	67d2                	ld	a5,272(sp)
   105e4:	c399                	beqz	a5,105ea <_vfprintf_r+0x294>
   105e6:	3600106f          	j	11946 <_vfprintf_r+0x15f0>
   105ea:	6782                	ld	a5,0(sp)
   105ec:	0107d783          	lhu	a5,16(a5)
   105f0:	0407f793          	and	a5,a5,64
   105f4:	c399                	beqz	a5,105fa <_vfprintf_r+0x2a4>
   105f6:	77e0106f          	j	11d74 <_vfprintf_r+0x1a1e>
   105fa:	26813083          	ld	ra,616(sp)
   105fe:	26013403          	ld	s0,608(sp)
   10602:	6522                	ld	a0,8(sp)
   10604:	25813483          	ld	s1,600(sp)
   10608:	25013903          	ld	s2,592(sp)
   1060c:	24813983          	ld	s3,584(sp)
   10610:	24013a03          	ld	s4,576(sp)
   10614:	23813a83          	ld	s5,568(sp)
   10618:	23013b03          	ld	s6,560(sp)
   1061c:	22813b83          	ld	s7,552(sp)
   10620:	22013c03          	ld	s8,544(sp)
   10624:	21813c83          	ld	s9,536(sp)
   10628:	21013d03          	ld	s10,528(sp)
   1062c:	20813d83          	ld	s11,520(sp)
   10630:	27010113          	add	sp,sp,624
   10634:	8082                	ret
   10636:	01096913          	or	s2,s2,16
   1063a:	0009ce83          	lbu	t4,0(s3)
   1063e:	2901                	sext.w	s2,s2
   10640:	b589                	j	10482 <_vfprintf_r+0x12c>
   10642:	6582                	ld	a1,0(sp)
   10644:	6506                	ld	a0,64(sp)
   10646:	1df010ef          	jal	12024 <__swsetup_r>
   1064a:	c119                	beqz	a0,10650 <_vfprintf_r+0x2fa>
   1064c:	7280106f          	j	11d74 <_vfprintf_r+0x1a1e>
   10650:	6782                	ld	a5,0(sp)
   10652:	46a9                	li	a3,10
   10654:	01079703          	lh	a4,16(a5)
   10658:	8b69                	and	a4,a4,26
   1065a:	d8d71fe3          	bne	a4,a3,103f8 <_vfprintf_r+0xa2>
   1065e:	6782                	ld	a5,0(sp)
   10660:	01279703          	lh	a4,18(a5)
   10664:	d8074ae3          	bltz	a4,103f8 <_vfprintf_r+0xa2>
   10668:	66e2                	ld	a3,24(sp)
   1066a:	6506                	ld	a0,64(sp)
   1066c:	864a                	mv	a2,s2
   1066e:	85be                	mv	a1,a5
   10670:	119010ef          	jal	11f88 <__sbprintf>
   10674:	e42a                	sd	a0,8(sp)
   10676:	b751                	j	105fa <_vfprintf_r+0x2a4>
   10678:	41598b3b          	subw	s6,s3,s5
   1067c:	da0b1fe3          	bnez	s6,1043a <_vfprintf_r+0xe4>
   10680:	0009c703          	lbu	a4,0(s3)
   10684:	b3d5                	j	10468 <_vfprintf_r+0x112>
   10686:	6582                	ld	a1,0(sp)
   10688:	0210                	add	a2,sp,256
   1068a:	8526                	mv	a0,s1
   1068c:	2ef070ef          	jal	1817a <__sprint_r>
   10690:	fd29                	bnez	a0,105ea <_vfprintf_r+0x294>
   10692:	0300                	add	s0,sp,384
   10694:	b3e1                	j	1045c <_vfprintf_r+0x106>
   10696:	00897713          	and	a4,s2,8
   1069a:	8e52                	mv	t3,s4
   1069c:	300711e3          	bnez	a4,1119e <_vfprintf_r+0xe48>
   106a0:	67e2                	ld	a5,24(sp)
   106a2:	f052                	sd	s4,32(sp)
   106a4:	e876                	sd	t4,16(sp)
   106a6:	2388                	fld	fa0,0(a5)
   106a8:	00878a13          	add	s4,a5,8
   106ac:	ec52                	sd	s4,24(sp)
   106ae:	02e0c0ef          	jal	1c6dc <__extenddftf2>
   106b2:	7e02                	ld	t3,32(sp)
   106b4:	6ec2                	ld	t4,16(sp)
   106b6:	872a                	mv	a4,a0
   106b8:	1988                	add	a0,sp,240
   106ba:	f072                	sd	t3,32(sp)
   106bc:	e876                	sd	t4,16(sp)
   106be:	f9ba                	sd	a4,240(sp)
   106c0:	fdae                	sd	a1,248(sp)
   106c2:	4fc040ef          	jal	14bbe <_ldcheck>
   106c6:	cdaa                	sw	a0,216(sp)
   106c8:	4709                	li	a4,2
   106ca:	6ec2                	ld	t4,16(sp)
   106cc:	7e02                	ld	t3,32(sp)
   106ce:	56e503e3          	beq	a0,a4,11434 <_vfprintf_r+0x10de>
   106d2:	4705                	li	a4,1
   106d4:	66e50fe3          	beq	a0,a4,11552 <_vfprintf_r+0x11fc>
   106d8:	06100713          	li	a4,97
   106dc:	00ee9463          	bne	t4,a4,106e4 <_vfprintf_r+0x38e>
   106e0:	53e0106f          	j	11c1e <_vfprintf_r+0x18c8>
   106e4:	04100713          	li	a4,65
   106e8:	00ee9463          	bne	t4,a4,106f0 <_vfprintf_r+0x39a>
   106ec:	2880106f          	j	11974 <_vfprintf_r+0x161e>
   106f0:	577d                	li	a4,-1
   106f2:	00ee1463          	bne	t3,a4,106fa <_vfprintf_r+0x3a4>
   106f6:	7820106f          	j	11e78 <_vfprintf_r+0x1b22>
   106fa:	fdfef713          	and	a4,t4,-33
   106fe:	04700693          	li	a3,71
   10702:	00d71463          	bne	a4,a3,1070a <_vfprintf_r+0x3b4>
   10706:	7640106f          	j	11e6a <_vfprintf_r+0x1b14>
   1070a:	10096713          	or	a4,s2,256
   1070e:	7b6e                	ld	s6,248(sp)
   10710:	0007079b          	sext.w	a5,a4
   10714:	e13e                	sd	a5,128(sp)
   10716:	f84a                	sd	s2,48(sp)
   10718:	7a4e                	ld	s4,240(sp)
   1071a:	000b5463          	bgez	s6,10722 <_vfprintf_r+0x3cc>
   1071e:	4c00106f          	j	11bde <_vfprintf_r+0x1888>
   10722:	e502                	sd	zero,136(sp)
   10724:	e802                	sd	zero,16(sp)
   10726:	fbfe871b          	addw	a4,t4,-65
   1072a:	0007061b          	sext.w	a2,a4
   1072e:	02500693          	li	a3,37
   10732:	00c6f463          	bgeu	a3,a2,1073a <_vfprintf_r+0x3e4>
   10736:	0360106f          	j	1176c <_vfprintf_r+0x1416>
   1073a:	02071613          	sll	a2,a4,0x20
   1073e:	0000c697          	auipc	a3,0xc
   10742:	4fa68693          	add	a3,a3,1274 # 1cc38 <__clzdi2+0x21a>
   10746:	01e65713          	srl	a4,a2,0x1e
   1074a:	9736                	add	a4,a4,a3
   1074c:	4318                	lw	a4,0(a4)
   1074e:	9736                	add	a4,a4,a3
   10750:	8702                	jr	a4
   10752:	6582                	ld	a1,0(sp)
   10754:	0210                	add	a2,sp,256
   10756:	8526                	mv	a0,s1
   10758:	e972                	sd	t3,144(sp)
   1075a:	e576                	sd	t4,136(sp)
   1075c:	e116                	sd	t0,128(sp)
   1075e:	21d070ef          	jal	1817a <__sprint_r>
   10762:	5e051c63          	bnez	a0,10d5a <_vfprintf_r+0xa04>
   10766:	6d52                	ld	s10,272(sp)
   10768:	6e4a                	ld	t3,144(sp)
   1076a:	6eaa                	ld	t4,136(sp)
   1076c:	628a                	ld	t0,128(sp)
   1076e:	0300                	add	s0,sp,384
   10770:	bbd1                	j	10544 <_vfprintf_r+0x1ee>
   10772:	77a2                	ld	a5,40(sp)
   10774:	4685                	li	a3,1
   10776:	01040c13          	add	s8,s0,16
   1077a:	08f6d5e3          	bge	a3,a5,11004 <_vfprintf_r+0xcae>
   1077e:	10812583          	lw	a1,264(sp)
   10782:	4685                	li	a3,1
   10784:	0d05                	add	s10,s10,1
   10786:	2585                	addw	a1,a1,1
   10788:	e414                	sd	a3,8(s0)
   1078a:	01543023          	sd	s5,0(s0)
   1078e:	ea6a                	sd	s10,272(sp)
   10790:	0005869b          	sext.w	a3,a1
   10794:	10b12423          	sw	a1,264(sp)
   10798:	461d                	li	a2,7
   1079a:	36d640e3          	blt	a2,a3,112fa <_vfprintf_r+0xfa4>
   1079e:	67a6                	ld	a5,72(sp)
   107a0:	6746                	ld	a4,80(sp)
   107a2:	0016841b          	addw	s0,a3,1
   107a6:	01a78cb3          	add	s9,a5,s10
   107aa:	00ec3023          	sd	a4,0(s8)
   107ae:	00fc3423          	sd	a5,8(s8)
   107b2:	ea66                	sd	s9,272(sp)
   107b4:	10812423          	sw	s0,264(sp)
   107b8:	469d                	li	a3,7
   107ba:	0c41                	add	s8,s8,16
   107bc:	3486cde3          	blt	a3,s0,11316 <_vfprintf_r+0xfc0>
   107c0:	754e                	ld	a0,240(sp)
   107c2:	75ee                	ld	a1,248(sp)
   107c4:	4601                	li	a2,0
   107c6:	4681                	li	a3,0
   107c8:	4bb0a0ef          	jal	1b482 <__eqtf2>
   107cc:	77a2                	ld	a5,40(sp)
   107ce:	fff78a1b          	addw	s4,a5,-1
   107d2:	06050ce3          	beqz	a0,1104a <_vfprintf_r+0xcf4>
   107d6:	001a8793          	add	a5,s5,1
   107da:	2405                	addw	s0,s0,1
   107dc:	9cd2                	add	s9,s9,s4
   107de:	00fc3023          	sd	a5,0(s8)
   107e2:	014c3423          	sd	s4,8(s8)
   107e6:	ea66                	sd	s9,272(sp)
   107e8:	10812423          	sw	s0,264(sp)
   107ec:	479d                	li	a5,7
   107ee:	0487c0e3          	blt	a5,s0,1102e <_vfprintf_r+0xcd8>
   107f2:	0c41                	add	s8,s8,16
   107f4:	7706                	ld	a4,96(sp)
   107f6:	0014069b          	addw	a3,s0,1
   107fa:	119c                	add	a5,sp,224
   107fc:	01970633          	add	a2,a4,s9
   10800:	00fc3023          	sd	a5,0(s8)
   10804:	00ec3423          	sd	a4,8(s8)
   10808:	ea32                	sd	a2,272(sp)
   1080a:	10d12423          	sw	a3,264(sp)
   1080e:	479d                	li	a5,7
   10810:	010c0413          	add	s0,s8,16
   10814:	d8d7d8e3          	bge	a5,a3,105a4 <_vfprintf_r+0x24e>
   10818:	6582                	ld	a1,0(sp)
   1081a:	0210                	add	a2,sp,256
   1081c:	8526                	mv	a0,s1
   1081e:	15d070ef          	jal	1817a <__sprint_r>
   10822:	52051c63          	bnez	a0,10d5a <_vfprintf_r+0xa04>
   10826:	6652                	ld	a2,272(sp)
   10828:	0300                	add	s0,sp,384
   1082a:	bbad                	j	105a4 <_vfprintf_r+0x24e>
   1082c:	6506                	ld	a0,64(sp)
   1082e:	605010ef          	jal	12632 <__sinit>
   10832:	b649                	j	103b4 <_vfprintf_r+0x5e>
   10834:	6762                	ld	a4,24(sp)
   10836:	0c0107a3          	sb	zero,207(sp)
   1083a:	4b05                	li	s6,1
   1083c:	431c                	lw	a5,0(a4)
   1083e:	0721                	add	a4,a4,8
   10840:	ec3a                	sd	a4,24(sp)
   10842:	10f10c23          	sb	a5,280(sp)
   10846:	4c85                	li	s9,1
   10848:	11810a93          	add	s5,sp,280
   1084c:	b165                	j	104f4 <_vfprintf_r+0x19e>
   1084e:	67e2                	ld	a5,24(sp)
   10850:	0c0107a3          	sb	zero,207(sp)
   10854:	8e52                	mv	t3,s4
   10856:	0007ba83          	ld	s5,0(a5)
   1085a:	00878a13          	add	s4,a5,8
   1085e:	200a8ee3          	beqz	s5,1127a <_vfprintf_r+0xf24>
   10862:	577d                	li	a4,-1
   10864:	40ee09e3          	beq	t3,a4,11476 <_vfprintf_r+0x1120>
   10868:	8672                	mv	a2,t3
   1086a:	4581                	li	a1,0
   1086c:	8556                	mv	a0,s5
   1086e:	f076                	sd	t4,32(sp)
   10870:	ec72                	sd	t3,24(sp)
   10872:	335040ef          	jal	153a6 <memchr>
   10876:	e82a                	sd	a0,16(sp)
   10878:	6e62                	ld	t3,24(sp)
   1087a:	7e82                	ld	t4,32(sp)
   1087c:	e119                	bnez	a0,10882 <_vfprintf_r+0x52c>
   1087e:	3ce0106f          	j	11c4c <_vfprintf_r+0x18f6>
   10882:	67c2                	ld	a5,16(sp)
   10884:	0cf14603          	lbu	a2,207(sp)
   10888:	ec52                	sd	s4,24(sp)
   1088a:	41578cbb          	subw	s9,a5,s5
   1088e:	fffcc713          	not	a4,s9
   10892:	977d                	sra	a4,a4,0x3f
   10894:	e802                	sd	zero,16(sp)
   10896:	fc02                	sd	zero,56(sp)
   10898:	f802                	sd	zero,48(sp)
   1089a:	f002                	sd	zero,32(sp)
   1089c:	01977b33          	and	s6,a4,s9
   108a0:	4e01                	li	t3,0
   108a2:	c4060ee3          	beqz	a2,104fe <_vfprintf_r+0x1a8>
   108a6:	2b05                	addw	s6,s6,1
   108a8:	b999                	j	104fe <_vfprintf_r+0x1a8>
   108aa:	67e2                	ld	a5,24(sp)
   108ac:	0007ab83          	lw	s7,0(a5)
   108b0:	07a1                	add	a5,a5,8
   108b2:	080bdbe3          	bgez	s7,11148 <_vfprintf_r+0xdf2>
   108b6:	41700bbb          	negw	s7,s7
   108ba:	ec3e                	sd	a5,24(sp)
   108bc:	00496913          	or	s2,s2,4
   108c0:	0009ce83          	lbu	t4,0(s3)
   108c4:	2901                	sext.w	s2,s2
   108c6:	be75                	j	10482 <_vfprintf_r+0x12c>
   108c8:	02b00793          	li	a5,43
   108cc:	0009ce83          	lbu	t4,0(s3)
   108d0:	0cf107a3          	sb	a5,207(sp)
   108d4:	b67d                	j	10482 <_vfprintf_r+0x12c>
   108d6:	08096913          	or	s2,s2,128
   108da:	0009ce83          	lbu	t4,0(s3)
   108de:	2901                	sext.w	s2,s2
   108e0:	b64d                	j	10482 <_vfprintf_r+0x12c>
   108e2:	0009ce83          	lbu	t4,0(s3)
   108e6:	02a00693          	li	a3,42
   108ea:	00198793          	add	a5,s3,1
   108ee:	00de9463          	bne	t4,a3,108f6 <_vfprintf_r+0x5a0>
   108f2:	61c0106f          	j	11f0e <_vfprintf_r+0x1bb8>
   108f6:	fd0e871b          	addw	a4,t4,-48
   108fa:	4625                	li	a2,9
   108fc:	89be                	mv	s3,a5
   108fe:	4a01                	li	s4,0
   10900:	46a5                	li	a3,9
   10902:	b8e662e3          	bltu	a2,a4,10486 <_vfprintf_r+0x130>
   10906:	0009ce83          	lbu	t4,0(s3)
   1090a:	002a179b          	sllw	a5,s4,0x2
   1090e:	01478e3b          	addw	t3,a5,s4
   10912:	001e1e1b          	sllw	t3,t3,0x1
   10916:	00ee0a3b          	addw	s4,t3,a4
   1091a:	fd0e871b          	addw	a4,t4,-48
   1091e:	0985                	add	s3,s3,1
   10920:	fee6f3e3          	bgeu	a3,a4,10906 <_vfprintf_r+0x5b0>
   10924:	b68d                	j	10486 <_vfprintf_r+0x130>
   10926:	8526                	mv	a0,s1
   10928:	2de040ef          	jal	14c06 <_localeconv_r>
   1092c:	651c                	ld	a5,8(a0)
   1092e:	853e                	mv	a0,a5
   10930:	fcbe                	sd	a5,120(sp)
   10932:	2a9050ef          	jal	163da <strlen>
   10936:	87aa                	mv	a5,a0
   10938:	8526                	mv	a0,s1
   1093a:	8c3e                	mv	s8,a5
   1093c:	f8be                	sd	a5,112(sp)
   1093e:	2c8040ef          	jal	14c06 <_localeconv_r>
   10942:	691c                	ld	a5,16(a0)
   10944:	0009ce83          	lbu	t4,0(s3)
   10948:	f4be                	sd	a5,104(sp)
   1094a:	b20c0ce3          	beqz	s8,10482 <_vfprintf_r+0x12c>
   1094e:	b2078ae3          	beqz	a5,10482 <_vfprintf_r+0x12c>
   10952:	0007c783          	lbu	a5,0(a5)
   10956:	b20786e3          	beqz	a5,10482 <_vfprintf_r+0x12c>
   1095a:	40096913          	or	s2,s2,1024
   1095e:	2901                	sext.w	s2,s2
   10960:	b60d                	j	10482 <_vfprintf_r+0x12c>
   10962:	00196913          	or	s2,s2,1
   10966:	0009ce83          	lbu	t4,0(s3)
   1096a:	2901                	sext.w	s2,s2
   1096c:	be19                	j	10482 <_vfprintf_r+0x12c>
   1096e:	0cf14783          	lbu	a5,207(sp)
   10972:	0009ce83          	lbu	t4,0(s3)
   10976:	b00796e3          	bnez	a5,10482 <_vfprintf_r+0x12c>
   1097a:	02000793          	li	a5,32
   1097e:	0cf107a3          	sb	a5,207(sp)
   10982:	b601                	j	10482 <_vfprintf_r+0x12c>
   10984:	01096c13          	or	s8,s2,16
   10988:	8e52                	mv	t3,s4
   1098a:	2c01                	sext.w	s8,s8
   1098c:	66e2                	ld	a3,24(sp)
   1098e:	020c7793          	and	a5,s8,32
   10992:	00868713          	add	a4,a3,8
   10996:	76078d63          	beqz	a5,11110 <_vfprintf_r+0xdba>
   1099a:	0006bb03          	ld	s6,0(a3)
   1099e:	4785                	li	a5,1
   109a0:	ec3a                	sd	a4,24(sp)
   109a2:	4701                	li	a4,0
   109a4:	0ce107a3          	sb	a4,207(sp)
   109a8:	577d                	li	a4,-1
   109aa:	1eee0e63          	beq	t3,a4,10ba6 <_vfprintf_r+0x850>
   109ae:	f7fc7913          	and	s2,s8,-129
   109b2:	2901                	sext.w	s2,s2
   109b4:	1e0b1863          	bnez	s6,10ba4 <_vfprintf_r+0x84e>
   109b8:	220e1b63          	bnez	t3,10bee <_vfprintf_r+0x898>
   109bc:	76079a63          	bnez	a5,11130 <_vfprintf_r+0xdda>
   109c0:	001c7c93          	and	s9,s8,1
   109c4:	17c10a93          	add	s5,sp,380
   109c8:	780c9563          	bnez	s9,11152 <_vfprintf_r+0xdfc>
   109cc:	0cf14603          	lbu	a2,207(sp)
   109d0:	8766                	mv	a4,s9
   109d2:	01ccd363          	bge	s9,t3,109d8 <_vfprintf_r+0x682>
   109d6:	8772                	mv	a4,t3
   109d8:	e802                	sd	zero,16(sp)
   109da:	fc02                	sd	zero,56(sp)
   109dc:	f802                	sd	zero,48(sp)
   109de:	f002                	sd	zero,32(sp)
   109e0:	00070b1b          	sext.w	s6,a4
   109e4:	ec0611e3          	bnez	a2,108a6 <_vfprintf_r+0x550>
   109e8:	be19                	j	104fe <_vfprintf_r+0x1a8>
   109ea:	00896913          	or	s2,s2,8
   109ee:	0009ce83          	lbu	t4,0(s3)
   109f2:	2901                	sext.w	s2,s2
   109f4:	b479                	j	10482 <_vfprintf_r+0x12c>
   109f6:	01096913          	or	s2,s2,16
   109fa:	8e52                	mv	t3,s4
   109fc:	2901                	sext.w	s2,s2
   109fe:	66e2                	ld	a3,24(sp)
   10a00:	02097793          	and	a5,s2,32
   10a04:	00868713          	add	a4,a3,8
   10a08:	6a078d63          	beqz	a5,110c2 <_vfprintf_r+0xd6c>
   10a0c:	629c                	ld	a5,0(a3)
   10a0e:	8b3e                	mv	s6,a5
   10a10:	6c07ca63          	bltz	a5,110e4 <_vfprintf_r+0xd8e>
   10a14:	57fd                	li	a5,-1
   10a16:	40fe0463          	beq	t3,a5,10e1e <_vfprintf_r+0xac8>
   10a1a:	f7f97c13          	and	s8,s2,-129
   10a1e:	2c01                	sext.w	s8,s8
   10a20:	200b18e3          	bnez	s6,11430 <_vfprintf_r+0x10da>
   10a24:	000e0463          	beqz	t3,10a2c <_vfprintf_r+0x6d6>
   10a28:	4560106f          	j	11e7e <_vfprintf_r+0x1b28>
   10a2c:	4c81                	li	s9,0
   10a2e:	ec3a                	sd	a4,24(sp)
   10a30:	8962                	mv	s2,s8
   10a32:	17c10a93          	add	s5,sp,380
   10a36:	bf59                	j	109cc <_vfprintf_r+0x676>
   10a38:	01096913          	or	s2,s2,16
   10a3c:	8e52                	mv	t3,s4
   10a3e:	2901                	sext.w	s2,s2
   10a40:	66e2                	ld	a3,24(sp)
   10a42:	02097793          	and	a5,s2,32
   10a46:	00868713          	add	a4,a3,8
   10a4a:	6a078563          	beqz	a5,110f4 <_vfprintf_r+0xd9e>
   10a4e:	0006bb03          	ld	s6,0(a3)
   10a52:	bff97c13          	and	s8,s2,-1025
   10a56:	2c01                	sext.w	s8,s8
   10a58:	ec3a                	sd	a4,24(sp)
   10a5a:	4781                	li	a5,0
   10a5c:	b799                	j	109a2 <_vfprintf_r+0x64c>
   10a5e:	02096913          	or	s2,s2,32
   10a62:	0009ce83          	lbu	t4,0(s3)
   10a66:	2901                	sext.w	s2,s2
   10a68:	bc29                	j	10482 <_vfprintf_r+0x12c>
   10a6a:	6762                	ld	a4,24(sp)
   10a6c:	02097793          	and	a5,s2,32
   10a70:	6318                	ld	a4,0(a4)
   10a72:	70078663          	beqz	a5,1117e <_vfprintf_r+0xe28>
   10a76:	67a2                	ld	a5,8(sp)
   10a78:	e31c                	sd	a5,0(a4)
   10a7a:	67e2                	ld	a5,24(sp)
   10a7c:	8ace                	mv	s5,s3
   10a7e:	07a1                	add	a5,a5,8
   10a80:	ec3e                	sd	a5,24(sp)
   10a82:	bea1                	j	105da <_vfprintf_r+0x284>
   10a84:	0009ce83          	lbu	t4,0(s3)
   10a88:	06c00793          	li	a5,108
   10a8c:	7cfe8f63          	beq	t4,a5,1126a <_vfprintf_r+0xf14>
   10a90:	01096913          	or	s2,s2,16
   10a94:	2901                	sext.w	s2,s2
   10a96:	b2f5                	j	10482 <_vfprintf_r+0x12c>
   10a98:	0009ce83          	lbu	t4,0(s3)
   10a9c:	06800793          	li	a5,104
   10aa0:	78fe8963          	beq	t4,a5,11232 <_vfprintf_r+0xedc>
   10aa4:	04096913          	or	s2,s2,64
   10aa8:	2901                	sext.w	s2,s2
   10aaa:	bae1                	j	10482 <_vfprintf_r+0x12c>
   10aac:	6762                	ld	a4,24(sp)
   10aae:	77e1                	lui	a5,0xffff8
   10ab0:	8307c793          	xor	a5,a5,-2000
   10ab4:	0cf11823          	sh	a5,208(sp)
   10ab8:	00870793          	add	a5,a4,8
   10abc:	00296c13          	or	s8,s2,2
   10ac0:	ec3e                	sd	a5,24(sp)
   10ac2:	0000c797          	auipc	a5,0xc
   10ac6:	fe678793          	add	a5,a5,-26 # 1caa8 <__clzdi2+0x8a>
   10aca:	ecbe                	sd	a5,88(sp)
   10acc:	00073b03          	ld	s6,0(a4)
   10ad0:	8e52                	mv	t3,s4
   10ad2:	2c01                	sext.w	s8,s8
   10ad4:	4789                	li	a5,2
   10ad6:	07800e93          	li	t4,120
   10ada:	b5e1                	j	109a2 <_vfprintf_r+0x64c>
   10adc:	06500693          	li	a3,101
   10ae0:	c9d6d9e3          	bge	a3,t4,10772 <_vfprintf_r+0x41c>
   10ae4:	754e                	ld	a0,240(sp)
   10ae6:	75ee                	ld	a1,248(sp)
   10ae8:	4601                	li	a2,0
   10aea:	4681                	li	a3,0
   10aec:	1970a0ef          	jal	1b482 <__eqtf2>
   10af0:	3e051463          	bnez	a0,10ed8 <_vfprintf_r+0xb82>
   10af4:	10812783          	lw	a5,264(sp)
   10af8:	0000c697          	auipc	a3,0xc
   10afc:	fd068693          	add	a3,a3,-48 # 1cac8 <__clzdi2+0xaa>
   10b00:	e014                	sd	a3,0(s0)
   10b02:	2785                	addw	a5,a5,1
   10b04:	4685                	li	a3,1
   10b06:	0d05                	add	s10,s10,1
   10b08:	e414                	sd	a3,8(s0)
   10b0a:	10f12423          	sw	a5,264(sp)
   10b0e:	0007869b          	sext.w	a3,a5
   10b12:	ea6a                	sd	s10,272(sp)
   10b14:	479d                	li	a5,7
   10b16:	0441                	add	s0,s0,16
   10b18:	0ed7c2e3          	blt	a5,a3,113fc <_vfprintf_r+0x10a6>
   10b1c:	47ee                	lw	a5,216(sp)
   10b1e:	7722                	ld	a4,40(sp)
   10b20:	60e7dc63          	bge	a5,a4,11138 <_vfprintf_r+0xde2>
   10b24:	10812783          	lw	a5,264(sp)
   10b28:	6726                	ld	a4,72(sp)
   10b2a:	66c6                	ld	a3,80(sp)
   10b2c:	0441                	add	s0,s0,16
   10b2e:	01a70633          	add	a2,a4,s10
   10b32:	fed43823          	sd	a3,-16(s0)
   10b36:	0017869b          	addw	a3,a5,1
   10b3a:	fee43c23          	sd	a4,-8(s0)
   10b3e:	ea32                	sd	a2,272(sp)
   10b40:	10d12423          	sw	a3,264(sp)
   10b44:	479d                	li	a5,7
   10b46:	70d7c563          	blt	a5,a3,11250 <_vfprintf_r+0xefa>
   10b4a:	77a2                	ld	a5,40(sp)
   10b4c:	fff78c1b          	addw	s8,a5,-1
   10b50:	a5805ae3          	blez	s8,105a4 <_vfprintf_r+0x24e>
   10b54:	46c1                	li	a3,16
   10b56:	10812783          	lw	a5,264(sp)
   10b5a:	0000cd17          	auipc	s10,0xc
   10b5e:	176d0d13          	add	s10,s10,374 # 1ccd0 <zeroes.0>
   10b62:	0b86d8e3          	bge	a3,s8,11412 <_vfprintf_r+0x10bc>
   10b66:	6a82                	ld	s5,0(sp)
   10b68:	4cc1                	li	s9,16
   10b6a:	4a1d                	li	s4,7
   10b6c:	a021                	j	10b74 <_vfprintf_r+0x81e>
   10b6e:	3c41                	addw	s8,s8,-16
   10b70:	0b8cd1e3          	bge	s9,s8,11412 <_vfprintf_r+0x10bc>
   10b74:	2785                	addw	a5,a5,1
   10b76:	0641                	add	a2,a2,16
   10b78:	01a43023          	sd	s10,0(s0)
   10b7c:	01943423          	sd	s9,8(s0)
   10b80:	ea32                	sd	a2,272(sp)
   10b82:	10f12423          	sw	a5,264(sp)
   10b86:	0441                	add	s0,s0,16
   10b88:	fefa53e3          	bge	s4,a5,10b6e <_vfprintf_r+0x818>
   10b8c:	0210                	add	a2,sp,256
   10b8e:	85d6                	mv	a1,s5
   10b90:	8526                	mv	a0,s1
   10b92:	5e8070ef          	jal	1817a <__sprint_r>
   10b96:	1c051263          	bnez	a0,10d5a <_vfprintf_r+0xa04>
   10b9a:	6652                	ld	a2,272(sp)
   10b9c:	10812783          	lw	a5,264(sp)
   10ba0:	0300                	add	s0,sp,384
   10ba2:	b7f1                	j	10b6e <_vfprintf_r+0x818>
   10ba4:	8c4a                	mv	s8,s2
   10ba6:	4705                	li	a4,1
   10ba8:	26e78d63          	beq	a5,a4,10e22 <_vfprintf_r+0xacc>
   10bac:	4709                	li	a4,2
   10bae:	04e78963          	beq	a5,a4,10c00 <_vfprintf_r+0x8aa>
   10bb2:	17c10a13          	add	s4,sp,380
   10bb6:	8ad2                	mv	s5,s4
   10bb8:	007b7713          	and	a4,s6,7
   10bbc:	03070713          	add	a4,a4,48
   10bc0:	feea8fa3          	sb	a4,-1(s5)
   10bc4:	003b5b13          	srl	s6,s6,0x3
   10bc8:	8656                	mv	a2,s5
   10bca:	1afd                	add	s5,s5,-1
   10bcc:	fe0b16e3          	bnez	s6,10bb8 <_vfprintf_r+0x862>
   10bd0:	001c7593          	and	a1,s8,1
   10bd4:	c5b1                	beqz	a1,10c20 <_vfprintf_r+0x8ca>
   10bd6:	03000593          	li	a1,48
   10bda:	04b70363          	beq	a4,a1,10c20 <_vfprintf_r+0x8ca>
   10bde:	1679                	add	a2,a2,-2
   10be0:	feba8fa3          	sb	a1,-1(s5)
   10be4:	40ca0cbb          	subw	s9,s4,a2
   10be8:	8962                	mv	s2,s8
   10bea:	8ab2                	mv	s5,a2
   10bec:	b3c5                	j	109cc <_vfprintf_r+0x676>
   10bee:	4705                	li	a4,1
   10bf0:	00e79463          	bne	a5,a4,10bf8 <_vfprintf_r+0x8a2>
   10bf4:	0c80106f          	j	11cbc <_vfprintf_r+0x1966>
   10bf8:	4709                	li	a4,2
   10bfa:	8c4a                	mv	s8,s2
   10bfc:	fae79be3          	bne	a5,a4,10bb2 <_vfprintf_r+0x85c>
   10c00:	6766                	ld	a4,88(sp)
   10c02:	17c10a13          	add	s4,sp,380
   10c06:	8ad2                	mv	s5,s4
   10c08:	00fb7793          	and	a5,s6,15
   10c0c:	97ba                	add	a5,a5,a4
   10c0e:	0007c783          	lbu	a5,0(a5)
   10c12:	004b5b13          	srl	s6,s6,0x4
   10c16:	1afd                	add	s5,s5,-1
   10c18:	00fa8023          	sb	a5,0(s5)
   10c1c:	fe0b16e3          	bnez	s6,10c08 <_vfprintf_r+0x8b2>
   10c20:	415a0cbb          	subw	s9,s4,s5
   10c24:	8962                	mv	s2,s8
   10c26:	b35d                	j	109cc <_vfprintf_r+0x676>
   10c28:	416b8a3b          	subw	s4,s7,s6
   10c2c:	954053e3          	blez	s4,10572 <_vfprintf_r+0x21c>
   10c30:	4541                	li	a0,16
   10c32:	85ea                	mv	a1,s10
   10c34:	10812603          	lw	a2,264(sp)
   10c38:	0000cd17          	auipc	s10,0xc
   10c3c:	098d0d13          	add	s10,s10,152 # 1ccd0 <zeroes.0>
   10c40:	07455063          	bge	a0,s4,10ca0 <_vfprintf_r+0x94a>
   10c44:	87a2                	mv	a5,s0
   10c46:	48c1                	li	a7,16
   10c48:	8452                	mv	s0,s4
   10c4a:	4c1d                	li	s8,7
   10c4c:	8a4a                	mv	s4,s2
   10c4e:	e176                	sd	t4,128(sp)
   10c50:	896a                	mv	s2,s10
   10c52:	8d56                	mv	s10,s5
   10c54:	8af2                	mv	s5,t3
   10c56:	a021                	j	10c5e <_vfprintf_r+0x908>
   10c58:	3441                	addw	s0,s0,-16
   10c5a:	0288dc63          	bge	a7,s0,10c92 <_vfprintf_r+0x93c>
   10c5e:	2605                	addw	a2,a2,1
   10c60:	05c1                	add	a1,a1,16
   10c62:	0127b023          	sd	s2,0(a5)
   10c66:	0117b423          	sd	a7,8(a5)
   10c6a:	ea2e                	sd	a1,272(sp)
   10c6c:	10c12423          	sw	a2,264(sp)
   10c70:	07c1                	add	a5,a5,16
   10c72:	fecc53e3          	bge	s8,a2,10c58 <_vfprintf_r+0x902>
   10c76:	6582                	ld	a1,0(sp)
   10c78:	0210                	add	a2,sp,256
   10c7a:	8526                	mv	a0,s1
   10c7c:	4fe070ef          	jal	1817a <__sprint_r>
   10c80:	ed69                	bnez	a0,10d5a <_vfprintf_r+0xa04>
   10c82:	48c1                	li	a7,16
   10c84:	3441                	addw	s0,s0,-16
   10c86:	65d2                	ld	a1,272(sp)
   10c88:	10812603          	lw	a2,264(sp)
   10c8c:	031c                	add	a5,sp,384
   10c8e:	fc88c8e3          	blt	a7,s0,10c5e <_vfprintf_r+0x908>
   10c92:	6e8a                	ld	t4,128(sp)
   10c94:	8e56                	mv	t3,s5
   10c96:	8aea                	mv	s5,s10
   10c98:	8d4a                	mv	s10,s2
   10c9a:	8952                	mv	s2,s4
   10c9c:	8a22                	mv	s4,s0
   10c9e:	843e                	mv	s0,a5
   10ca0:	0016051b          	addw	a0,a2,1
   10ca4:	95d2                	add	a1,a1,s4
   10ca6:	01a43023          	sd	s10,0(s0)
   10caa:	01443423          	sd	s4,8(s0)
   10cae:	ea2e                	sd	a1,272(sp)
   10cb0:	10a12423          	sw	a0,264(sp)
   10cb4:	461d                	li	a2,7
   10cb6:	50a64863          	blt	a2,a0,111c6 <_vfprintf_r+0xe70>
   10cba:	419e0a3b          	subw	s4,t3,s9
   10cbe:	0441                	add	s0,s0,16
   10cc0:	8d2e                	mv	s10,a1
   10cc2:	8b405ce3          	blez	s4,1057a <_vfprintf_r+0x224>
   10cc6:	85ea                	mv	a1,s10
   10cc8:	10812603          	lw	a2,264(sp)
   10ccc:	0000cd17          	auipc	s10,0xc
   10cd0:	004d0d13          	add	s10,s10,4 # 1ccd0 <zeroes.0>
   10cd4:	054ddb63          	bge	s11,s4,10d2a <_vfprintf_r+0x9d4>
   10cd8:	87a2                	mv	a5,s0
   10cda:	4c1d                	li	s8,7
   10cdc:	8452                	mv	s0,s4
   10cde:	8a4a                	mv	s4,s2
   10ce0:	8976                	mv	s2,t4
   10ce2:	a021                	j	10cea <_vfprintf_r+0x994>
   10ce4:	3441                	addw	s0,s0,-16
   10ce6:	028dde63          	bge	s11,s0,10d22 <_vfprintf_r+0x9cc>
   10cea:	2605                	addw	a2,a2,1
   10cec:	05c1                	add	a1,a1,16
   10cee:	0000c697          	auipc	a3,0xc
   10cf2:	fe268693          	add	a3,a3,-30 # 1ccd0 <zeroes.0>
   10cf6:	e394                	sd	a3,0(a5)
   10cf8:	01b7b423          	sd	s11,8(a5)
   10cfc:	ea2e                	sd	a1,272(sp)
   10cfe:	10c12423          	sw	a2,264(sp)
   10d02:	07c1                	add	a5,a5,16
   10d04:	fecc50e3          	bge	s8,a2,10ce4 <_vfprintf_r+0x98e>
   10d08:	6582                	ld	a1,0(sp)
   10d0a:	0210                	add	a2,sp,256
   10d0c:	8526                	mv	a0,s1
   10d0e:	46c070ef          	jal	1817a <__sprint_r>
   10d12:	e521                	bnez	a0,10d5a <_vfprintf_r+0xa04>
   10d14:	3441                	addw	s0,s0,-16
   10d16:	65d2                	ld	a1,272(sp)
   10d18:	10812603          	lw	a2,264(sp)
   10d1c:	031c                	add	a5,sp,384
   10d1e:	fc8dc6e3          	blt	s11,s0,10cea <_vfprintf_r+0x994>
   10d22:	8eca                	mv	t4,s2
   10d24:	8952                	mv	s2,s4
   10d26:	8a22                	mv	s4,s0
   10d28:	843e                	mv	s0,a5
   10d2a:	0016051b          	addw	a0,a2,1
   10d2e:	95d2                	add	a1,a1,s4
   10d30:	01a43023          	sd	s10,0(s0)
   10d34:	01443423          	sd	s4,8(s0)
   10d38:	ea2e                	sd	a1,272(sp)
   10d3a:	10a12423          	sw	a0,264(sp)
   10d3e:	461d                	li	a2,7
   10d40:	36a64463          	blt	a2,a0,110a8 <_vfprintf_r+0xd52>
   10d44:	0441                	add	s0,s0,16
   10d46:	8d2e                	mv	s10,a1
   10d48:	833ff06f          	j	1057a <_vfprintf_r+0x224>
   10d4c:	6582                	ld	a1,0(sp)
   10d4e:	0210                	add	a2,sp,256
   10d50:	8526                	mv	a0,s1
   10d52:	428070ef          	jal	1817a <__sprint_r>
   10d56:	860508e3          	beqz	a0,105c6 <_vfprintf_r+0x270>
   10d5a:	65c2                	ld	a1,16(sp)
   10d5c:	880587e3          	beqz	a1,105ea <_vfprintf_r+0x294>
   10d60:	6506                	ld	a0,64(sp)
   10d62:	209010ef          	jal	1276a <_free_r>
   10d66:	b051                	j	105ea <_vfprintf_r+0x294>
   10d68:	4541                	li	a0,16
   10d6a:	65d2                	ld	a1,272(sp)
   10d6c:	10812603          	lw	a2,264(sp)
   10d70:	0000ca17          	auipc	s4,0xc
   10d74:	f70a0a13          	add	s4,s4,-144 # 1cce0 <blanks.1>
   10d78:	07a55563          	bge	a0,s10,10de2 <_vfprintf_r+0xa8c>
   10d7c:	8752                	mv	a4,s4
   10d7e:	87a2                	mv	a5,s0
   10d80:	8a4a                	mv	s4,s2
   10d82:	846a                	mv	s0,s10
   10d84:	4841                	li	a6,16
   10d86:	8d56                	mv	s10,s5
   10d88:	439d                	li	t2,7
   10d8a:	e116                	sd	t0,128(sp)
   10d8c:	e576                	sd	t4,136(sp)
   10d8e:	8af2                	mv	s5,t3
   10d90:	893a                	mv	s2,a4
   10d92:	a021                	j	10d9a <_vfprintf_r+0xa44>
   10d94:	3441                	addw	s0,s0,-16
   10d96:	02885d63          	bge	a6,s0,10dd0 <_vfprintf_r+0xa7a>
   10d9a:	2605                	addw	a2,a2,1
   10d9c:	05c1                	add	a1,a1,16
   10d9e:	0127b023          	sd	s2,0(a5)
   10da2:	0107b423          	sd	a6,8(a5)
   10da6:	ea2e                	sd	a1,272(sp)
   10da8:	10c12423          	sw	a2,264(sp)
   10dac:	07c1                	add	a5,a5,16
   10dae:	fec3d3e3          	bge	t2,a2,10d94 <_vfprintf_r+0xa3e>
   10db2:	6582                	ld	a1,0(sp)
   10db4:	0210                	add	a2,sp,256
   10db6:	8526                	mv	a0,s1
   10db8:	3c2070ef          	jal	1817a <__sprint_r>
   10dbc:	fd59                	bnez	a0,10d5a <_vfprintf_r+0xa04>
   10dbe:	4841                	li	a6,16
   10dc0:	3441                	addw	s0,s0,-16
   10dc2:	65d2                	ld	a1,272(sp)
   10dc4:	10812603          	lw	a2,264(sp)
   10dc8:	031c                	add	a5,sp,384
   10dca:	439d                	li	t2,7
   10dcc:	fc8847e3          	blt	a6,s0,10d9a <_vfprintf_r+0xa44>
   10dd0:	628a                	ld	t0,128(sp)
   10dd2:	6eaa                	ld	t4,136(sp)
   10dd4:	8e56                	mv	t3,s5
   10dd6:	8aea                	mv	s5,s10
   10dd8:	8d22                	mv	s10,s0
   10dda:	843e                	mv	s0,a5
   10ddc:	87ca                	mv	a5,s2
   10dde:	8952                	mv	s2,s4
   10de0:	8a3e                	mv	s4,a5
   10de2:	2605                	addw	a2,a2,1
   10de4:	95ea                	add	a1,a1,s10
   10de6:	01443023          	sd	s4,0(s0)
   10dea:	01a43423          	sd	s10,8(s0)
   10dee:	ea2e                	sd	a1,272(sp)
   10df0:	10c12423          	sw	a2,264(sp)
   10df4:	0006059b          	sext.w	a1,a2
   10df8:	461d                	li	a2,7
   10dfa:	0441                	add	s0,s0,16
   10dfc:	f0b65e63          	bge	a2,a1,10518 <_vfprintf_r+0x1c2>
   10e00:	6582                	ld	a1,0(sp)
   10e02:	0210                	add	a2,sp,256
   10e04:	8526                	mv	a0,s1
   10e06:	e972                	sd	t3,144(sp)
   10e08:	e576                	sd	t4,136(sp)
   10e0a:	e116                	sd	t0,128(sp)
   10e0c:	36e070ef          	jal	1817a <__sprint_r>
   10e10:	f529                	bnez	a0,10d5a <_vfprintf_r+0xa04>
   10e12:	6e4a                	ld	t3,144(sp)
   10e14:	6eaa                	ld	t4,136(sp)
   10e16:	628a                	ld	t0,128(sp)
   10e18:	0300                	add	s0,sp,384
   10e1a:	efeff06f          	j	10518 <_vfprintf_r+0x1c2>
   10e1e:	8c4a                	mv	s8,s2
   10e20:	ec3a                	sd	a4,24(sp)
   10e22:	47a5                	li	a5,9
   10e24:	5167e763          	bltu	a5,s6,11332 <_vfprintf_r+0xfdc>
   10e28:	030b0b1b          	addw	s6,s6,48
   10e2c:	17610da3          	sb	s6,379(sp)
   10e30:	8962                	mv	s2,s8
   10e32:	4c85                	li	s9,1
   10e34:	17b10a93          	add	s5,sp,379
   10e38:	be51                	j	109cc <_vfprintf_r+0x676>
   10e3a:	6582                	ld	a1,0(sp)
   10e3c:	0210                	add	a2,sp,256
   10e3e:	8526                	mv	a0,s1
   10e40:	e572                	sd	t3,136(sp)
   10e42:	e176                	sd	t4,128(sp)
   10e44:	336070ef          	jal	1817a <__sprint_r>
   10e48:	f909                	bnez	a0,10d5a <_vfprintf_r+0xa04>
   10e4a:	6d52                	ld	s10,272(sp)
   10e4c:	6e2a                	ld	t3,136(sp)
   10e4e:	6e8a                	ld	t4,128(sp)
   10e50:	0300                	add	s0,sp,384
   10e52:	f18ff06f          	j	1056a <_vfprintf_r+0x214>
   10e56:	46c1                	li	a3,16
   10e58:	10812783          	lw	a5,264(sp)
   10e5c:	0000ca17          	auipc	s4,0xc
   10e60:	e84a0a13          	add	s4,s4,-380 # 1cce0 <blanks.1>
   10e64:	0526d363          	bge	a3,s2,10eaa <_vfprintf_r+0xb54>
   10e68:	6a82                	ld	s5,0(sp)
   10e6a:	4c41                	li	s8,16
   10e6c:	4c9d                	li	s9,7
   10e6e:	a021                	j	10e76 <_vfprintf_r+0xb20>
   10e70:	3941                	addw	s2,s2,-16
   10e72:	032c5c63          	bge	s8,s2,10eaa <_vfprintf_r+0xb54>
   10e76:	2785                	addw	a5,a5,1
   10e78:	0641                	add	a2,a2,16
   10e7a:	01443023          	sd	s4,0(s0)
   10e7e:	01843423          	sd	s8,8(s0)
   10e82:	ea32                	sd	a2,272(sp)
   10e84:	10f12423          	sw	a5,264(sp)
   10e88:	0441                	add	s0,s0,16
   10e8a:	fefcd3e3          	bge	s9,a5,10e70 <_vfprintf_r+0xb1a>
   10e8e:	0210                	add	a2,sp,256
   10e90:	85d6                	mv	a1,s5
   10e92:	8526                	mv	a0,s1
   10e94:	2e6070ef          	jal	1817a <__sprint_r>
   10e98:	ec0511e3          	bnez	a0,10d5a <_vfprintf_r+0xa04>
   10e9c:	3941                	addw	s2,s2,-16
   10e9e:	6652                	ld	a2,272(sp)
   10ea0:	10812783          	lw	a5,264(sp)
   10ea4:	0300                	add	s0,sp,384
   10ea6:	fd2c48e3          	blt	s8,s2,10e76 <_vfprintf_r+0xb20>
   10eaa:	0017869b          	addw	a3,a5,1
   10eae:	964a                	add	a2,a2,s2
   10eb0:	01443023          	sd	s4,0(s0)
   10eb4:	01243423          	sd	s2,8(s0)
   10eb8:	ea32                	sd	a2,272(sp)
   10eba:	10d12423          	sw	a3,264(sp)
   10ebe:	479d                	li	a5,7
   10ec0:	eed7da63          	bge	a5,a3,105b4 <_vfprintf_r+0x25e>
   10ec4:	6582                	ld	a1,0(sp)
   10ec6:	0210                	add	a2,sp,256
   10ec8:	8526                	mv	a0,s1
   10eca:	2b0070ef          	jal	1817a <__sprint_r>
   10ece:	e80516e3          	bnez	a0,10d5a <_vfprintf_r+0xa04>
   10ed2:	6652                	ld	a2,272(sp)
   10ed4:	ee0ff06f          	j	105b4 <_vfprintf_r+0x25e>
   10ed8:	456e                	lw	a0,216(sp)
   10eda:	4aa05863          	blez	a0,1138a <_vfprintf_r+0x1034>
   10ede:	77a2                	ld	a5,40(sp)
   10ee0:	00fa8733          	add	a4,s5,a5
   10ee4:	e13a                	sd	a4,128(sp)
   10ee6:	7702                	ld	a4,32(sp)
   10ee8:	86ba                	mv	a3,a4
   10eea:	2ce7c863          	blt	a5,a4,111ba <_vfprintf_r+0xe64>
   10eee:	00068a1b          	sext.w	s4,a3
   10ef2:	03405263          	blez	s4,10f16 <_vfprintf_r+0xbc0>
   10ef6:	10812603          	lw	a2,264(sp)
   10efa:	9d52                	add	s10,s10,s4
   10efc:	01543023          	sd	s5,0(s0)
   10f00:	0016059b          	addw	a1,a2,1
   10f04:	01443423          	sd	s4,8(s0)
   10f08:	ea6a                	sd	s10,272(sp)
   10f0a:	10b12423          	sw	a1,264(sp)
   10f0e:	461d                	li	a2,7
   10f10:	0441                	add	s0,s0,16
   10f12:	1cb647e3          	blt	a2,a1,118e0 <_vfprintf_r+0x158a>
   10f16:	fffa4613          	not	a2,s4
   10f1a:	7782                	ld	a5,32(sp)
   10f1c:	967d                	sra	a2,a2,0x3f
   10f1e:	00ca76b3          	and	a3,s4,a2
   10f22:	40d78a3b          	subw	s4,a5,a3
   10f26:	37404863          	bgtz	s4,11296 <_vfprintf_r+0xf40>
   10f2a:	7782                	ld	a5,32(sp)
   10f2c:	40097693          	and	a3,s2,1024
   10f30:	9abe                	add	s5,s5,a5
   10f32:	6a069063          	bnez	a3,115d2 <_vfprintf_r+0x127c>
   10f36:	46ee                	lw	a3,216(sp)
   10f38:	77a2                	ld	a5,40(sp)
   10f3a:	00f6c663          	blt	a3,a5,10f46 <_vfprintf_r+0xbf0>
   10f3e:	00197613          	and	a2,s2,1
   10f42:	1a060ce3          	beqz	a2,118fa <_vfprintf_r+0x15a4>
   10f46:	10812583          	lw	a1,264(sp)
   10f4a:	67a6                	ld	a5,72(sp)
   10f4c:	6746                	ld	a4,80(sp)
   10f4e:	0015851b          	addw	a0,a1,1
   10f52:	01a78633          	add	a2,a5,s10
   10f56:	e018                	sd	a4,0(s0)
   10f58:	e41c                	sd	a5,8(s0)
   10f5a:	ea32                	sd	a2,272(sp)
   10f5c:	10a12423          	sw	a0,264(sp)
   10f60:	459d                	li	a1,7
   10f62:	0441                	add	s0,s0,16
   10f64:	4ca5c8e3          	blt	a1,a0,11c34 <_vfprintf_r+0x18de>
   10f68:	678a                	ld	a5,128(sp)
   10f6a:	41578c33          	sub	s8,a5,s5
   10f6e:	77a2                	ld	a5,40(sp)
   10f70:	000c051b          	sext.w	a0,s8
   10f74:	40d785bb          	subw	a1,a5,a3
   10f78:	00a5d363          	bge	a1,a0,10f7e <_vfprintf_r+0xc28>
   10f7c:	8c2e                	mv	s8,a1
   10f7e:	2c01                	sext.w	s8,s8
   10f80:	03805163          	blez	s8,10fa2 <_vfprintf_r+0xc4c>
   10f84:	10812683          	lw	a3,264(sp)
   10f88:	9662                	add	a2,a2,s8
   10f8a:	01543023          	sd	s5,0(s0)
   10f8e:	2685                	addw	a3,a3,1
   10f90:	01843423          	sd	s8,8(s0)
   10f94:	ea32                	sd	a2,272(sp)
   10f96:	10d12423          	sw	a3,264(sp)
   10f9a:	479d                	li	a5,7
   10f9c:	0441                	add	s0,s0,16
   10f9e:	4ed7cfe3          	blt	a5,a3,11c9c <_vfprintf_r+0x1946>
   10fa2:	fffc4793          	not	a5,s8
   10fa6:	97fd                	sra	a5,a5,0x3f
   10fa8:	00fc7c33          	and	s8,s8,a5
   10fac:	41858c3b          	subw	s8,a1,s8
   10fb0:	df805a63          	blez	s8,105a4 <_vfprintf_r+0x24e>
   10fb4:	46c1                	li	a3,16
   10fb6:	10812783          	lw	a5,264(sp)
   10fba:	0000cd17          	auipc	s10,0xc
   10fbe:	d16d0d13          	add	s10,s10,-746 # 1ccd0 <zeroes.0>
   10fc2:	4586d863          	bge	a3,s8,11412 <_vfprintf_r+0x10bc>
   10fc6:	6a82                	ld	s5,0(sp)
   10fc8:	4cc1                	li	s9,16
   10fca:	4a1d                	li	s4,7
   10fcc:	a021                	j	10fd4 <_vfprintf_r+0xc7e>
   10fce:	3c41                	addw	s8,s8,-16
   10fd0:	458cd163          	bge	s9,s8,11412 <_vfprintf_r+0x10bc>
   10fd4:	2785                	addw	a5,a5,1
   10fd6:	0641                	add	a2,a2,16
   10fd8:	01a43023          	sd	s10,0(s0)
   10fdc:	01943423          	sd	s9,8(s0)
   10fe0:	ea32                	sd	a2,272(sp)
   10fe2:	10f12423          	sw	a5,264(sp)
   10fe6:	0441                	add	s0,s0,16
   10fe8:	fefa53e3          	bge	s4,a5,10fce <_vfprintf_r+0xc78>
   10fec:	0210                	add	a2,sp,256
   10fee:	85d6                	mv	a1,s5
   10ff0:	8526                	mv	a0,s1
   10ff2:	188070ef          	jal	1817a <__sprint_r>
   10ff6:	d60512e3          	bnez	a0,10d5a <_vfprintf_r+0xa04>
   10ffa:	6652                	ld	a2,272(sp)
   10ffc:	10812783          	lw	a5,264(sp)
   11000:	0300                	add	s0,sp,384
   11002:	b7f1                	j	10fce <_vfprintf_r+0xc78>
   11004:	00197613          	and	a2,s2,1
   11008:	f6061b63          	bnez	a2,1077e <_vfprintf_r+0x428>
   1100c:	10812603          	lw	a2,264(sp)
   11010:	001d0c93          	add	s9,s10,1
   11014:	01543023          	sd	s5,0(s0)
   11018:	0016079b          	addw	a5,a2,1
   1101c:	e414                	sd	a3,8(s0)
   1101e:	10f12423          	sw	a5,264(sp)
   11022:	0007841b          	sext.w	s0,a5
   11026:	ea66                	sd	s9,272(sp)
   11028:	479d                	li	a5,7
   1102a:	fc87d563          	bge	a5,s0,107f4 <_vfprintf_r+0x49e>
   1102e:	6582                	ld	a1,0(sp)
   11030:	0210                	add	a2,sp,256
   11032:	8526                	mv	a0,s1
   11034:	146070ef          	jal	1817a <__sprint_r>
   11038:	d20511e3          	bnez	a0,10d5a <_vfprintf_r+0xa04>
   1103c:	6cd2                	ld	s9,272(sp)
   1103e:	10812403          	lw	s0,264(sp)
   11042:	18010c13          	add	s8,sp,384
   11046:	faeff06f          	j	107f4 <_vfprintf_r+0x49e>
   1104a:	7722                	ld	a4,40(sp)
   1104c:	4785                	li	a5,1
   1104e:	fae7d363          	bge	a5,a4,107f4 <_vfprintf_r+0x49e>
   11052:	47c5                	li	a5,17
   11054:	0000cd17          	auipc	s10,0xc
   11058:	c7cd0d13          	add	s10,s10,-900 # 1ccd0 <zeroes.0>
   1105c:	44e7d963          	bge	a5,a4,114ae <_vfprintf_r+0x1158>
   11060:	87ea                	mv	a5,s10
   11062:	4841                	li	a6,16
   11064:	8d52                	mv	s10,s4
   11066:	4a9d                	li	s5,7
   11068:	8a4a                	mv	s4,s2
   1106a:	893e                	mv	s2,a5
   1106c:	a021                	j	11074 <_vfprintf_r+0xd1e>
   1106e:	3d41                	addw	s10,s10,-16
   11070:	43a85b63          	bge	a6,s10,114a6 <_vfprintf_r+0x1150>
   11074:	2405                	addw	s0,s0,1
   11076:	0cc1                	add	s9,s9,16
   11078:	012c3023          	sd	s2,0(s8)
   1107c:	010c3423          	sd	a6,8(s8)
   11080:	ea66                	sd	s9,272(sp)
   11082:	10812423          	sw	s0,264(sp)
   11086:	0c41                	add	s8,s8,16
   11088:	fe8ad3e3          	bge	s5,s0,1106e <_vfprintf_r+0xd18>
   1108c:	6582                	ld	a1,0(sp)
   1108e:	0210                	add	a2,sp,256
   11090:	8526                	mv	a0,s1
   11092:	0e8070ef          	jal	1817a <__sprint_r>
   11096:	cc0512e3          	bnez	a0,10d5a <_vfprintf_r+0xa04>
   1109a:	6cd2                	ld	s9,272(sp)
   1109c:	10812403          	lw	s0,264(sp)
   110a0:	18010c13          	add	s8,sp,384
   110a4:	4841                	li	a6,16
   110a6:	b7e1                	j	1106e <_vfprintf_r+0xd18>
   110a8:	6582                	ld	a1,0(sp)
   110aa:	0210                	add	a2,sp,256
   110ac:	8526                	mv	a0,s1
   110ae:	e176                	sd	t4,128(sp)
   110b0:	0ca070ef          	jal	1817a <__sprint_r>
   110b4:	ca0513e3          	bnez	a0,10d5a <_vfprintf_r+0xa04>
   110b8:	6d52                	ld	s10,272(sp)
   110ba:	6e8a                	ld	t4,128(sp)
   110bc:	0300                	add	s0,sp,384
   110be:	cbcff06f          	j	1057a <_vfprintf_r+0x224>
   110c2:	01097793          	and	a5,s2,16
   110c6:	ebc5                	bnez	a5,11176 <_vfprintf_r+0xe20>
   110c8:	66e2                	ld	a3,24(sp)
   110ca:	04097793          	and	a5,s2,64
   110ce:	0006ab03          	lw	s6,0(a3)
   110d2:	44078b63          	beqz	a5,11528 <_vfprintf_r+0x11d2>
   110d6:	010b1b1b          	sllw	s6,s6,0x10
   110da:	410b5b1b          	sraw	s6,s6,0x10
   110de:	87da                	mv	a5,s6
   110e0:	9207dae3          	bgez	a5,10a14 <_vfprintf_r+0x6be>
   110e4:	ec3a                	sd	a4,24(sp)
   110e6:	41600b33          	neg	s6,s6
   110ea:	8c4a                	mv	s8,s2
   110ec:	02d00713          	li	a4,45
   110f0:	4785                	li	a5,1
   110f2:	b84d                	j	109a4 <_vfprintf_r+0x64e>
   110f4:	01097793          	and	a5,s2,16
   110f8:	ebbd                	bnez	a5,1116e <_vfprintf_r+0xe18>
   110fa:	66e2                	ld	a3,24(sp)
   110fc:	04097793          	and	a5,s2,64
   11100:	0006ab03          	lw	s6,0(a3)
   11104:	40078363          	beqz	a5,1150a <_vfprintf_r+0x11b4>
   11108:	1b42                	sll	s6,s6,0x30
   1110a:	030b5b13          	srl	s6,s6,0x30
   1110e:	b291                	j	10a52 <_vfprintf_r+0x6fc>
   11110:	010c7793          	and	a5,s8,16
   11114:	e7b1                	bnez	a5,11160 <_vfprintf_r+0xe0a>
   11116:	66e2                	ld	a3,24(sp)
   11118:	040c7793          	and	a5,s8,64
   1111c:	0006ab03          	lw	s6,0(a3)
   11120:	40078f63          	beqz	a5,1153e <_vfprintf_r+0x11e8>
   11124:	1b42                	sll	s6,s6,0x30
   11126:	030b5b13          	srl	s6,s6,0x30
   1112a:	ec3a                	sd	a4,24(sp)
   1112c:	4785                	li	a5,1
   1112e:	b895                	j	109a2 <_vfprintf_r+0x64c>
   11130:	4c81                	li	s9,0
   11132:	17c10a93          	add	s5,sp,380
   11136:	b859                	j	109cc <_vfprintf_r+0x676>
   11138:	00197793          	and	a5,s2,1
   1113c:	866a                	mv	a2,s10
   1113e:	c6078363          	beqz	a5,105a4 <_vfprintf_r+0x24e>
   11142:	b2cd                	j	10b24 <_vfprintf_r+0x7ce>
   11144:	8e52                	mv	t3,s4
   11146:	b865                	j	109fe <_vfprintf_r+0x6a8>
   11148:	0009ce83          	lbu	t4,0(s3)
   1114c:	ec3e                	sd	a5,24(sp)
   1114e:	b34ff06f          	j	10482 <_vfprintf_r+0x12c>
   11152:	03000793          	li	a5,48
   11156:	16f10da3          	sb	a5,379(sp)
   1115a:	17b10a93          	add	s5,sp,379
   1115e:	b0bd                	j	109cc <_vfprintf_r+0x676>
   11160:	67e2                	ld	a5,24(sp)
   11162:	ec3a                	sd	a4,24(sp)
   11164:	0007bb03          	ld	s6,0(a5)
   11168:	4785                	li	a5,1
   1116a:	839ff06f          	j	109a2 <_vfprintf_r+0x64c>
   1116e:	67e2                	ld	a5,24(sp)
   11170:	0007bb03          	ld	s6,0(a5)
   11174:	b8f9                	j	10a52 <_vfprintf_r+0x6fc>
   11176:	67e2                	ld	a5,24(sp)
   11178:	639c                	ld	a5,0(a5)
   1117a:	8b3e                	mv	s6,a5
   1117c:	b851                	j	10a10 <_vfprintf_r+0x6ba>
   1117e:	01097793          	and	a5,s2,16
   11182:	8e079ae3          	bnez	a5,10a76 <_vfprintf_r+0x720>
   11186:	04097793          	and	a5,s2,64
   1118a:	78079663          	bnez	a5,11916 <_vfprintf_r+0x15c0>
   1118e:	20097913          	and	s2,s2,512
   11192:	67a2                	ld	a5,8(sp)
   11194:	4a0908e3          	beqz	s2,11e44 <_vfprintf_r+0x1aee>
   11198:	00f70023          	sb	a5,0(a4)
   1119c:	b8f9                	j	10a7a <_vfprintf_r+0x724>
   1119e:	67e2                	ld	a5,24(sp)
   111a0:	00f78a13          	add	s4,a5,15
   111a4:	ff0a7a13          	and	s4,s4,-16
   111a8:	010a0793          	add	a5,s4,16
   111ac:	000a3703          	ld	a4,0(s4)
   111b0:	008a3583          	ld	a1,8(s4)
   111b4:	ec3e                	sd	a5,24(sp)
   111b6:	d02ff06f          	j	106b8 <_vfprintf_r+0x362>
   111ba:	86be                	mv	a3,a5
   111bc:	00068a1b          	sext.w	s4,a3
   111c0:	d3404be3          	bgtz	s4,10ef6 <_vfprintf_r+0xba0>
   111c4:	bb89                	j	10f16 <_vfprintf_r+0xbc0>
   111c6:	6582                	ld	a1,0(sp)
   111c8:	0210                	add	a2,sp,256
   111ca:	8526                	mv	a0,s1
   111cc:	e572                	sd	t3,136(sp)
   111ce:	e176                	sd	t4,128(sp)
   111d0:	7ab060ef          	jal	1817a <__sprint_r>
   111d4:	b80513e3          	bnez	a0,10d5a <_vfprintf_r+0xa04>
   111d8:	6d52                	ld	s10,272(sp)
   111da:	6e2a                	ld	t3,136(sp)
   111dc:	6e8a                	ld	t4,128(sp)
   111de:	0300                	add	s0,sp,384
   111e0:	b92ff06f          	j	10572 <_vfprintf_r+0x21c>
   111e4:	0000c797          	auipc	a5,0xc
   111e8:	8ac78793          	add	a5,a5,-1876 # 1ca90 <__clzdi2+0x72>
   111ec:	8e52                	mv	t3,s4
   111ee:	ecbe                	sd	a5,88(sp)
   111f0:	66e2                	ld	a3,24(sp)
   111f2:	02097793          	and	a5,s2,32
   111f6:	00868713          	add	a4,a3,8
   111fa:	cbe5                	beqz	a5,112ea <_vfprintf_r+0xf94>
   111fc:	0006bb03          	ld	s6,0(a3)
   11200:	00197793          	and	a5,s2,1
   11204:	cf81                	beqz	a5,1121c <_vfprintf_r+0xec6>
   11206:	000b0b63          	beqz	s6,1121c <_vfprintf_r+0xec6>
   1120a:	00296913          	or	s2,s2,2
   1120e:	03000793          	li	a5,48
   11212:	0cf10823          	sb	a5,208(sp)
   11216:	0dd108a3          	sb	t4,209(sp)
   1121a:	2901                	sext.w	s2,s2
   1121c:	bff97c13          	and	s8,s2,-1025
   11220:	2c01                	sext.w	s8,s8
   11222:	ec3a                	sd	a4,24(sp)
   11224:	4789                	li	a5,2
   11226:	f7cff06f          	j	109a2 <_vfprintf_r+0x64c>
   1122a:	8e52                	mv	t3,s4
   1122c:	8c4a                	mv	s8,s2
   1122e:	f5eff06f          	j	1098c <_vfprintf_r+0x636>
   11232:	20096913          	or	s2,s2,512
   11236:	0019ce83          	lbu	t4,1(s3)
   1123a:	2901                	sext.w	s2,s2
   1123c:	0985                	add	s3,s3,1
   1123e:	a44ff06f          	j	10482 <_vfprintf_r+0x12c>
   11242:	0000c797          	auipc	a5,0xc
   11246:	86678793          	add	a5,a5,-1946 # 1caa8 <__clzdi2+0x8a>
   1124a:	8e52                	mv	t3,s4
   1124c:	ecbe                	sd	a5,88(sp)
   1124e:	b74d                	j	111f0 <_vfprintf_r+0xe9a>
   11250:	6582                	ld	a1,0(sp)
   11252:	0210                	add	a2,sp,256
   11254:	8526                	mv	a0,s1
   11256:	725060ef          	jal	1817a <__sprint_r>
   1125a:	b00510e3          	bnez	a0,10d5a <_vfprintf_r+0xa04>
   1125e:	6652                	ld	a2,272(sp)
   11260:	0300                	add	s0,sp,384
   11262:	b0e5                	j	10b4a <_vfprintf_r+0x7f4>
   11264:	8e52                	mv	t3,s4
   11266:	fdaff06f          	j	10a40 <_vfprintf_r+0x6ea>
   1126a:	02096913          	or	s2,s2,32
   1126e:	0019ce83          	lbu	t4,1(s3)
   11272:	2901                	sext.w	s2,s2
   11274:	0985                	add	s3,s3,1
   11276:	a0cff06f          	j	10482 <_vfprintf_r+0x12c>
   1127a:	4799                	li	a5,6
   1127c:	86f2                	mv	a3,t3
   1127e:	67c7ec63          	bltu	a5,t3,118f6 <_vfprintf_r+0x15a0>
   11282:	00068c9b          	sext.w	s9,a3
   11286:	8b66                	mv	s6,s9
   11288:	ec52                	sd	s4,24(sp)
   1128a:	0000ca97          	auipc	s5,0xc
   1128e:	836a8a93          	add	s5,s5,-1994 # 1cac0 <__clzdi2+0xa2>
   11292:	a62ff06f          	j	104f4 <_vfprintf_r+0x19e>
   11296:	4541                	li	a0,16
   11298:	866a                	mv	a2,s10
   1129a:	10812583          	lw	a1,264(sp)
   1129e:	0000cd17          	auipc	s10,0xc
   112a2:	a32d0d13          	add	s10,s10,-1486 # 1ccd0 <zeroes.0>
   112a6:	2d455c63          	bge	a0,s4,1157e <_vfprintf_r+0x1228>
   112aa:	6c02                	ld	s8,0(sp)
   112ac:	4841                	li	a6,16
   112ae:	4c9d                	li	s9,7
   112b0:	a021                	j	112b8 <_vfprintf_r+0xf62>
   112b2:	3a41                	addw	s4,s4,-16
   112b4:	2d485563          	bge	a6,s4,1157e <_vfprintf_r+0x1228>
   112b8:	2585                	addw	a1,a1,1
   112ba:	0641                	add	a2,a2,16
   112bc:	01a43023          	sd	s10,0(s0)
   112c0:	01043423          	sd	a6,8(s0)
   112c4:	ea32                	sd	a2,272(sp)
   112c6:	10b12423          	sw	a1,264(sp)
   112ca:	0441                	add	s0,s0,16
   112cc:	febcd3e3          	bge	s9,a1,112b2 <_vfprintf_r+0xf5c>
   112d0:	0210                	add	a2,sp,256
   112d2:	85e2                	mv	a1,s8
   112d4:	8526                	mv	a0,s1
   112d6:	6a5060ef          	jal	1817a <__sprint_r>
   112da:	a80510e3          	bnez	a0,10d5a <_vfprintf_r+0xa04>
   112de:	6652                	ld	a2,272(sp)
   112e0:	10812583          	lw	a1,264(sp)
   112e4:	0300                	add	s0,sp,384
   112e6:	4841                	li	a6,16
   112e8:	b7e9                	j	112b2 <_vfprintf_r+0xf5c>
   112ea:	01097793          	and	a5,s2,16
   112ee:	0e078c63          	beqz	a5,113e6 <_vfprintf_r+0x1090>
   112f2:	67e2                	ld	a5,24(sp)
   112f4:	0007bb03          	ld	s6,0(a5)
   112f8:	b721                	j	11200 <_vfprintf_r+0xeaa>
   112fa:	6582                	ld	a1,0(sp)
   112fc:	0210                	add	a2,sp,256
   112fe:	8526                	mv	a0,s1
   11300:	67b060ef          	jal	1817a <__sprint_r>
   11304:	a4051be3          	bnez	a0,10d5a <_vfprintf_r+0xa04>
   11308:	6d52                	ld	s10,272(sp)
   1130a:	10812683          	lw	a3,264(sp)
   1130e:	18010c13          	add	s8,sp,384
   11312:	c8cff06f          	j	1079e <_vfprintf_r+0x448>
   11316:	6582                	ld	a1,0(sp)
   11318:	0210                	add	a2,sp,256
   1131a:	8526                	mv	a0,s1
   1131c:	65f060ef          	jal	1817a <__sprint_r>
   11320:	a2051de3          	bnez	a0,10d5a <_vfprintf_r+0xa04>
   11324:	6cd2                	ld	s9,272(sp)
   11326:	10812403          	lw	s0,264(sp)
   1132a:	18010c13          	add	s8,sp,384
   1132e:	c92ff06f          	j	107c0 <_vfprintf_r+0x46a>
   11332:	17c10a13          	add	s4,sp,380
   11336:	7826                	ld	a6,104(sp)
   11338:	400c7c93          	and	s9,s8,1024
   1133c:	4681                	li	a3,0
   1133e:	85d2                	mv	a1,s4
   11340:	4929                	li	s2,10
   11342:	4d25                	li	s10,9
   11344:	0ff00713          	li	a4,255
   11348:	a039                	j	11356 <_vfprintf_r+0x1000>
   1134a:	032b57b3          	divu	a5,s6,s2
   1134e:	036d7763          	bgeu	s10,s6,1137c <_vfprintf_r+0x1026>
   11352:	8b3e                	mv	s6,a5
   11354:	85d6                	mv	a1,s5
   11356:	fff58a93          	add	s5,a1,-1
   1135a:	2685                	addw	a3,a3,1
   1135c:	032b77b3          	remu	a5,s6,s2
   11360:	0307879b          	addw	a5,a5,48
   11364:	fef58fa3          	sb	a5,-1(a1)
   11368:	fe0c81e3          	beqz	s9,1134a <_vfprintf_r+0xff4>
   1136c:	00084783          	lbu	a5,0(a6)
   11370:	fcf69de3          	bne	a3,a5,1134a <_vfprintf_r+0xff4>
   11374:	fce78be3          	beq	a5,a4,1134a <_vfprintf_r+0xff4>
   11378:	236d6363          	bltu	s10,s6,1159e <_vfprintf_r+0x1248>
   1137c:	f436                	sd	a3,40(sp)
   1137e:	f4c2                	sd	a6,104(sp)
   11380:	415a0cbb          	subw	s9,s4,s5
   11384:	8962                	mv	s2,s8
   11386:	e46ff06f          	j	109cc <_vfprintf_r+0x676>
   1138a:	10812683          	lw	a3,264(sp)
   1138e:	0000b597          	auipc	a1,0xb
   11392:	73a58593          	add	a1,a1,1850 # 1cac8 <__clzdi2+0xaa>
   11396:	e00c                	sd	a1,0(s0)
   11398:	2685                	addw	a3,a3,1
   1139a:	4585                	li	a1,1
   1139c:	001d0613          	add	a2,s10,1
   113a0:	e40c                	sd	a1,8(s0)
   113a2:	10d12423          	sw	a3,264(sp)
   113a6:	0006859b          	sext.w	a1,a3
   113aa:	ea32                	sd	a2,272(sp)
   113ac:	469d                	li	a3,7
   113ae:	0441                	add	s0,s0,16
   113b0:	38b6ce63          	blt	a3,a1,1174c <_vfprintf_r+0x13f6>
   113b4:	10051a63          	bnez	a0,114c8 <_vfprintf_r+0x1172>
   113b8:	77a2                	ld	a5,40(sp)
   113ba:	00197693          	and	a3,s2,1
   113be:	8edd                	or	a3,a3,a5
   113c0:	9e068263          	beqz	a3,105a4 <_vfprintf_r+0x24e>
   113c4:	10812683          	lw	a3,264(sp)
   113c8:	67a6                	ld	a5,72(sp)
   113ca:	6746                	ld	a4,80(sp)
   113cc:	0016859b          	addw	a1,a3,1
   113d0:	963e                	add	a2,a2,a5
   113d2:	e018                	sd	a4,0(s0)
   113d4:	e41c                	sd	a5,8(s0)
   113d6:	ea32                	sd	a2,272(sp)
   113d8:	10b12423          	sw	a1,264(sp)
   113dc:	469d                	li	a3,7
   113de:	56b6ce63          	blt	a3,a1,1195a <_vfprintf_r+0x1604>
   113e2:	0441                	add	s0,s0,16
   113e4:	a221                	j	114ec <_vfprintf_r+0x1196>
   113e6:	66e2                	ld	a3,24(sp)
   113e8:	04097793          	and	a5,s2,64
   113ec:	0006ab03          	lw	s6,0(a3)
   113f0:	12078563          	beqz	a5,1151a <_vfprintf_r+0x11c4>
   113f4:	1b42                	sll	s6,s6,0x30
   113f6:	030b5b13          	srl	s6,s6,0x30
   113fa:	b519                	j	11200 <_vfprintf_r+0xeaa>
   113fc:	6582                	ld	a1,0(sp)
   113fe:	0210                	add	a2,sp,256
   11400:	8526                	mv	a0,s1
   11402:	579060ef          	jal	1817a <__sprint_r>
   11406:	94051ae3          	bnez	a0,10d5a <_vfprintf_r+0xa04>
   1140a:	6d52                	ld	s10,272(sp)
   1140c:	0300                	add	s0,sp,384
   1140e:	f0eff06f          	j	10b1c <_vfprintf_r+0x7c6>
   11412:	0017869b          	addw	a3,a5,1
   11416:	01a43023          	sd	s10,0(s0)
   1141a:	01843423          	sd	s8,8(s0)
   1141e:	9662                	add	a2,a2,s8
   11420:	ea32                	sd	a2,272(sp)
   11422:	10d12423          	sw	a3,264(sp)
   11426:	479d                	li	a5,7
   11428:	96d7dd63          	bge	a5,a3,105a2 <_vfprintf_r+0x24c>
   1142c:	becff06f          	j	10818 <_vfprintf_r+0x4c2>
   11430:	ec3a                	sd	a4,24(sp)
   11432:	bac5                	j	10e22 <_vfprintf_r+0xacc>
   11434:	754e                	ld	a0,240(sp)
   11436:	75ee                	ld	a1,248(sp)
   11438:	4601                	li	a2,0
   1143a:	4681                	li	a3,0
   1143c:	1a00a0ef          	jal	1b5dc <__letf2>
   11440:	6ec2                	ld	t4,16(sp)
   11442:	7e054163          	bltz	a0,11c24 <_vfprintf_r+0x18ce>
   11446:	0cf14603          	lbu	a2,207(sp)
   1144a:	04700713          	li	a4,71
   1144e:	0000ba97          	auipc	s5,0xb
   11452:	622a8a93          	add	s5,s5,1570 # 1ca70 <__clzdi2+0x52>
   11456:	31d74663          	blt	a4,t4,11762 <_vfprintf_r+0x140c>
   1145a:	f7f97913          	and	s2,s2,-129
   1145e:	e802                	sd	zero,16(sp)
   11460:	fc02                	sd	zero,56(sp)
   11462:	f802                	sd	zero,48(sp)
   11464:	f002                	sd	zero,32(sp)
   11466:	2901                	sext.w	s2,s2
   11468:	4b0d                	li	s6,3
   1146a:	4c8d                	li	s9,3
   1146c:	4e01                	li	t3,0
   1146e:	c2061c63          	bnez	a2,108a6 <_vfprintf_r+0x550>
   11472:	88cff06f          	j	104fe <_vfprintf_r+0x1a8>
   11476:	8556                	mv	a0,s5
   11478:	e176                	sd	t4,128(sp)
   1147a:	761040ef          	jal	163da <strlen>
   1147e:	00050c9b          	sext.w	s9,a0
   11482:	0cf14603          	lbu	a2,207(sp)
   11486:	fffcc713          	not	a4,s9
   1148a:	977d                	sra	a4,a4,0x3f
   1148c:	ec52                	sd	s4,24(sp)
   1148e:	e802                	sd	zero,16(sp)
   11490:	fc02                	sd	zero,56(sp)
   11492:	f802                	sd	zero,48(sp)
   11494:	f002                	sd	zero,32(sp)
   11496:	6e8a                	ld	t4,128(sp)
   11498:	01977b33          	and	s6,a4,s9
   1149c:	4e01                	li	t3,0
   1149e:	c0061463          	bnez	a2,108a6 <_vfprintf_r+0x550>
   114a2:	85cff06f          	j	104fe <_vfprintf_r+0x1a8>
   114a6:	87ca                	mv	a5,s2
   114a8:	8952                	mv	s2,s4
   114aa:	8a6a                	mv	s4,s10
   114ac:	8d3e                	mv	s10,a5
   114ae:	2405                	addw	s0,s0,1
   114b0:	9cd2                	add	s9,s9,s4
   114b2:	01ac3023          	sd	s10,0(s8)
   114b6:	014c3423          	sd	s4,8(s8)
   114ba:	ea66                	sd	s9,272(sp)
   114bc:	10812423          	sw	s0,264(sp)
   114c0:	479d                	li	a5,7
   114c2:	b287d863          	bge	a5,s0,107f2 <_vfprintf_r+0x49c>
   114c6:	b6a5                	j	1102e <_vfprintf_r+0xcd8>
   114c8:	10812683          	lw	a3,264(sp)
   114cc:	67a6                	ld	a5,72(sp)
   114ce:	6746                	ld	a4,80(sp)
   114d0:	0016859b          	addw	a1,a3,1
   114d4:	963e                	add	a2,a2,a5
   114d6:	e018                	sd	a4,0(s0)
   114d8:	e41c                	sd	a5,8(s0)
   114da:	ea32                	sd	a2,272(sp)
   114dc:	10b12423          	sw	a1,264(sp)
   114e0:	469d                	li	a3,7
   114e2:	0441                	add	s0,s0,16
   114e4:	46b6cb63          	blt	a3,a1,1195a <_vfprintf_r+0x1604>
   114e8:	7c054d63          	bltz	a0,11cc2 <_vfprintf_r+0x196c>
   114ec:	77a2                	ld	a5,40(sp)
   114ee:	0015869b          	addw	a3,a1,1
   114f2:	01543023          	sd	s5,0(s0)
   114f6:	963e                	add	a2,a2,a5
   114f8:	e41c                	sd	a5,8(s0)
   114fa:	ea32                	sd	a2,272(sp)
   114fc:	10d12423          	sw	a3,264(sp)
   11500:	479d                	li	a5,7
   11502:	8ad7d063          	bge	a5,a3,105a2 <_vfprintf_r+0x24c>
   11506:	b12ff06f          	j	10818 <_vfprintf_r+0x4c2>
   1150a:	20097793          	and	a5,s2,512
   1150e:	42078763          	beqz	a5,1193c <_vfprintf_r+0x15e6>
   11512:	0ffb7b13          	zext.b	s6,s6
   11516:	d3cff06f          	j	10a52 <_vfprintf_r+0x6fc>
   1151a:	20097793          	and	a5,s2,512
   1151e:	40078b63          	beqz	a5,11934 <_vfprintf_r+0x15de>
   11522:	0ffb7b13          	zext.b	s6,s6
   11526:	b9e9                	j	11200 <_vfprintf_r+0xeaa>
   11528:	20097793          	and	a5,s2,512
   1152c:	40078163          	beqz	a5,1192e <_vfprintf_r+0x15d8>
   11530:	018b1b1b          	sllw	s6,s6,0x18
   11534:	418b5b1b          	sraw	s6,s6,0x18
   11538:	87da                	mv	a5,s6
   1153a:	cd6ff06f          	j	10a10 <_vfprintf_r+0x6ba>
   1153e:	200c7793          	and	a5,s8,512
   11542:	3c078f63          	beqz	a5,11920 <_vfprintf_r+0x15ca>
   11546:	0ffb7b13          	zext.b	s6,s6
   1154a:	ec3a                	sd	a4,24(sp)
   1154c:	4785                	li	a5,1
   1154e:	c54ff06f          	j	109a2 <_vfprintf_r+0x64c>
   11552:	77ee                	ld	a5,248(sp)
   11554:	4007d063          	bgez	a5,11954 <_vfprintf_r+0x15fe>
   11558:	02d00793          	li	a5,45
   1155c:	0cf107a3          	sb	a5,207(sp)
   11560:	02d00613          	li	a2,45
   11564:	04700713          	li	a4,71
   11568:	0000ba97          	auipc	s5,0xb
   1156c:	518a8a93          	add	s5,s5,1304 # 1ca80 <__clzdi2+0x62>
   11570:	efd755e3          	bge	a4,t4,1145a <_vfprintf_r+0x1104>
   11574:	0000ba97          	auipc	s5,0xb
   11578:	514a8a93          	add	s5,s5,1300 # 1ca88 <__clzdi2+0x6a>
   1157c:	bdf9                	j	1145a <_vfprintf_r+0x1104>
   1157e:	0015851b          	addw	a0,a1,1
   11582:	9652                	add	a2,a2,s4
   11584:	01a43023          	sd	s10,0(s0)
   11588:	01443423          	sd	s4,8(s0)
   1158c:	ea32                	sd	a2,272(sp)
   1158e:	10a12423          	sw	a0,264(sp)
   11592:	469d                	li	a3,7
   11594:	56a6c663          	blt	a3,a0,11b00 <_vfprintf_r+0x17aa>
   11598:	0441                	add	s0,s0,16
   1159a:	8d32                	mv	s10,a2
   1159c:	b279                	j	10f2a <_vfprintf_r+0xbd4>
   1159e:	77c6                	ld	a5,112(sp)
   115a0:	75e6                	ld	a1,120(sp)
   115a2:	f472                	sd	t3,40(sp)
   115a4:	40fa8ab3          	sub	s5,s5,a5
   115a8:	863e                	mv	a2,a5
   115aa:	8556                	mv	a0,s5
   115ac:	f076                	sd	t4,32(sp)
   115ae:	e842                	sd	a6,16(sp)
   115b0:	6bf040ef          	jal	1646e <strncpy>
   115b4:	6842                	ld	a6,16(sp)
   115b6:	47a9                	li	a5,10
   115b8:	02fb57b3          	divu	a5,s6,a5
   115bc:	00184683          	lbu	a3,1(a6)
   115c0:	7e82                	ld	t4,32(sp)
   115c2:	7e22                	ld	t3,40(sp)
   115c4:	00d036b3          	snez	a3,a3
   115c8:	9836                	add	a6,a6,a3
   115ca:	0ff00713          	li	a4,255
   115ce:	4681                	li	a3,0
   115d0:	b349                	j	11352 <_vfprintf_r+0xffc>
   115d2:	87a2                	mv	a5,s0
   115d4:	7442                	ld	s0,48(sp)
   115d6:	e54e                	sd	s3,136(sp)
   115d8:	ed5e                	sd	s7,152(sp)
   115da:	f85a                	sd	s6,48(sp)
   115dc:	e94a                	sd	s2,144(sp)
   115de:	8b56                	mv	s6,s5
   115e0:	86ea                	mv	a3,s10
   115e2:	79e6                	ld	s3,120(sp)
   115e4:	7bc6                	ld	s7,112(sp)
   115e6:	7aa6                	ld	s5,104(sp)
   115e8:	6c02                	ld	s8,0(sp)
   115ea:	7d62                	ld	s10,56(sp)
   115ec:	489d                	li	a7,7
   115ee:	4a41                	li	s4,16
   115f0:	0000bc97          	auipc	s9,0xb
   115f4:	6e0c8c93          	add	s9,s9,1760 # 1ccd0 <zeroes.0>
   115f8:	c049                	beqz	s0,1167a <_vfprintf_r+0x1324>
   115fa:	100d0c63          	beqz	s10,11712 <_vfprintf_r+0x13bc>
   115fe:	3d7d                	addw	s10,s10,-1
   11600:	10812703          	lw	a4,264(sp)
   11604:	96de                	add	a3,a3,s7
   11606:	0137b023          	sd	s3,0(a5)
   1160a:	0017061b          	addw	a2,a4,1
   1160e:	0177b423          	sd	s7,8(a5)
   11612:	ea36                	sd	a3,272(sp)
   11614:	10c12423          	sw	a2,264(sp)
   11618:	07c1                	add	a5,a5,16
   1161a:	0ec8cf63          	blt	a7,a2,11718 <_vfprintf_r+0x13c2>
   1161e:	670a                	ld	a4,128(sp)
   11620:	000ac603          	lbu	a2,0(s5)
   11624:	41670733          	sub	a4,a4,s6
   11628:	0007059b          	sext.w	a1,a4
   1162c:	0006081b          	sext.w	a6,a2
   11630:	00b65363          	bge	a2,a1,11636 <_vfprintf_r+0x12e0>
   11634:	8742                	mv	a4,a6
   11636:	0007091b          	sext.w	s2,a4
   1163a:	03205563          	blez	s2,11664 <_vfprintf_r+0x130e>
   1163e:	10812603          	lw	a2,264(sp)
   11642:	96ca                	add	a3,a3,s2
   11644:	0167b023          	sd	s6,0(a5)
   11648:	0016059b          	addw	a1,a2,1
   1164c:	0127b423          	sd	s2,8(a5)
   11650:	ea36                	sd	a3,272(sp)
   11652:	10b12423          	sw	a1,264(sp)
   11656:	0cb8cc63          	blt	a7,a1,1172e <_vfprintf_r+0x13d8>
   1165a:	000ac603          	lbu	a2,0(s5)
   1165e:	07c1                	add	a5,a5,16
   11660:	0006081b          	sext.w	a6,a2
   11664:	fff94593          	not	a1,s2
   11668:	95fd                	sra	a1,a1,0x3f
   1166a:	00b97733          	and	a4,s2,a1
   1166e:	40e8093b          	subw	s2,a6,a4
   11672:	03204363          	bgtz	s2,11698 <_vfprintf_r+0x1342>
   11676:	9b32                	add	s6,s6,a2
   11678:	f049                	bnez	s0,115fa <_vfprintf_r+0x12a4>
   1167a:	f80d12e3          	bnez	s10,115fe <_vfprintf_r+0x12a8>
   1167e:	843e                	mv	s0,a5
   11680:	678a                	ld	a5,128(sp)
   11682:	f4d6                	sd	s5,104(sp)
   11684:	8ada                	mv	s5,s6
   11686:	69aa                	ld	s3,136(sp)
   11688:	694a                	ld	s2,144(sp)
   1168a:	6bea                	ld	s7,152(sp)
   1168c:	7b42                	ld	s6,48(sp)
   1168e:	8d36                	mv	s10,a3
   11690:	8b57f3e3          	bgeu	a5,s5,10f36 <_vfprintf_r+0xbe0>
   11694:	8abe                	mv	s5,a5
   11696:	b045                	j	10f36 <_vfprintf_r+0xbe0>
   11698:	10812703          	lw	a4,264(sp)
   1169c:	0000b597          	auipc	a1,0xb
   116a0:	63458593          	add	a1,a1,1588 # 1ccd0 <zeroes.0>
   116a4:	052a5763          	bge	s4,s2,116f2 <_vfprintf_r+0x139c>
   116a8:	f022                	sd	s0,32(sp)
   116aa:	844a                	mv	s0,s2
   116ac:	8966                	mv	s2,s9
   116ae:	a021                	j	116b6 <_vfprintf_r+0x1360>
   116b0:	3441                	addw	s0,s0,-16
   116b2:	028a5d63          	bge	s4,s0,116ec <_vfprintf_r+0x1396>
   116b6:	2705                	addw	a4,a4,1
   116b8:	06c1                	add	a3,a3,16
   116ba:	0197b023          	sd	s9,0(a5)
   116be:	0147b423          	sd	s4,8(a5)
   116c2:	ea36                	sd	a3,272(sp)
   116c4:	10e12423          	sw	a4,264(sp)
   116c8:	07c1                	add	a5,a5,16
   116ca:	fee8d3e3          	bge	a7,a4,116b0 <_vfprintf_r+0x135a>
   116ce:	0210                	add	a2,sp,256
   116d0:	85e2                	mv	a1,s8
   116d2:	8526                	mv	a0,s1
   116d4:	2a7060ef          	jal	1817a <__sprint_r>
   116d8:	e8051163          	bnez	a0,10d5a <_vfprintf_r+0xa04>
   116dc:	3441                	addw	s0,s0,-16
   116de:	66d2                	ld	a3,272(sp)
   116e0:	10812703          	lw	a4,264(sp)
   116e4:	031c                	add	a5,sp,384
   116e6:	489d                	li	a7,7
   116e8:	fc8a47e3          	blt	s4,s0,116b6 <_vfprintf_r+0x1360>
   116ec:	85ca                	mv	a1,s2
   116ee:	8922                	mv	s2,s0
   116f0:	7402                	ld	s0,32(sp)
   116f2:	0017061b          	addw	a2,a4,1
   116f6:	96ca                	add	a3,a3,s2
   116f8:	e38c                	sd	a1,0(a5)
   116fa:	0127b423          	sd	s2,8(a5)
   116fe:	ea36                	sd	a3,272(sp)
   11700:	10c12423          	sw	a2,264(sp)
   11704:	4ec8cf63          	blt	a7,a2,11c02 <_vfprintf_r+0x18ac>
   11708:	000ac603          	lbu	a2,0(s5)
   1170c:	07c1                	add	a5,a5,16
   1170e:	9b32                	add	s6,s6,a2
   11710:	b7a5                	j	11678 <_vfprintf_r+0x1322>
   11712:	1afd                	add	s5,s5,-1
   11714:	347d                	addw	s0,s0,-1
   11716:	b5ed                	j	11600 <_vfprintf_r+0x12aa>
   11718:	0210                	add	a2,sp,256
   1171a:	85e2                	mv	a1,s8
   1171c:	8526                	mv	a0,s1
   1171e:	25d060ef          	jal	1817a <__sprint_r>
   11722:	e2051c63          	bnez	a0,10d5a <_vfprintf_r+0xa04>
   11726:	66d2                	ld	a3,272(sp)
   11728:	031c                	add	a5,sp,384
   1172a:	489d                	li	a7,7
   1172c:	bdcd                	j	1161e <_vfprintf_r+0x12c8>
   1172e:	0210                	add	a2,sp,256
   11730:	85e2                	mv	a1,s8
   11732:	8526                	mv	a0,s1
   11734:	247060ef          	jal	1817a <__sprint_r>
   11738:	e2051163          	bnez	a0,10d5a <_vfprintf_r+0xa04>
   1173c:	000ac603          	lbu	a2,0(s5)
   11740:	66d2                	ld	a3,272(sp)
   11742:	031c                	add	a5,sp,384
   11744:	0006081b          	sext.w	a6,a2
   11748:	489d                	li	a7,7
   1174a:	bf29                	j	11664 <_vfprintf_r+0x130e>
   1174c:	6582                	ld	a1,0(sp)
   1174e:	0210                	add	a2,sp,256
   11750:	8526                	mv	a0,s1
   11752:	229060ef          	jal	1817a <__sprint_r>
   11756:	e0051263          	bnez	a0,10d5a <_vfprintf_r+0xa04>
   1175a:	456e                	lw	a0,216(sp)
   1175c:	6652                	ld	a2,272(sp)
   1175e:	0300                	add	s0,sp,384
   11760:	b991                	j	113b4 <_vfprintf_r+0x105e>
   11762:	0000ba97          	auipc	s5,0xb
   11766:	316a8a93          	add	s5,s5,790 # 1ca78 <__clzdi2+0x5a>
   1176a:	b9c5                	j	1145a <_vfprintf_r+0x1104>
   1176c:	8972                	mv	s2,t3
   1176e:	4689                	li	a3,2
   11770:	874a                	mv	a4,s2
   11772:	0e810893          	add	a7,sp,232
   11776:	0dc10813          	add	a6,sp,220
   1177a:	09bc                	add	a5,sp,216
   1177c:	85d2                	mv	a1,s4
   1177e:	865a                	mv	a2,s6
   11780:	8526                	mv	a0,s1
   11782:	f472                	sd	t3,40(sp)
   11784:	f076                	sd	t4,32(sp)
   11786:	5d4020ef          	jal	13d5a <_ldtoa_r>
   1178a:	7e82                	ld	t4,32(sp)
   1178c:	06700713          	li	a4,103
   11790:	7e22                	ld	t3,40(sp)
   11792:	8aaa                	mv	s5,a0
   11794:	44ee8e63          	beq	t4,a4,11bf0 <_vfprintf_r+0x189a>
   11798:	04700713          	li	a4,71
   1179c:	44ee8a63          	beq	t4,a4,11bf0 <_vfprintf_r+0x189a>
   117a0:	fdfefd13          	and	s10,t4,-33
   117a4:	04600713          	li	a4,70
   117a8:	01250cb3          	add	s9,a0,s2
   117ac:	4aed0e63          	beq	s10,a4,11c68 <_vfprintf_r+0x1912>
   117b0:	4601                	li	a2,0
   117b2:	4681                	li	a3,0
   117b4:	8552                	mv	a0,s4
   117b6:	85da                	mv	a1,s6
   117b8:	f472                	sd	t3,40(sp)
   117ba:	f076                	sd	t4,32(sp)
   117bc:	4c7090ef          	jal	1b482 <__eqtf2>
   117c0:	7e82                	ld	t4,32(sp)
   117c2:	7e22                	ld	t3,40(sp)
   117c4:	87e6                	mv	a5,s9
   117c6:	cd11                	beqz	a0,117e2 <_vfprintf_r+0x148c>
   117c8:	77ae                	ld	a5,232(sp)
   117ca:	0197fc63          	bgeu	a5,s9,117e2 <_vfprintf_r+0x148c>
   117ce:	03000693          	li	a3,48
   117d2:	00178713          	add	a4,a5,1
   117d6:	f5ba                	sd	a4,232(sp)
   117d8:	00d78023          	sb	a3,0(a5)
   117dc:	77ae                	ld	a5,232(sp)
   117de:	ff97eae3          	bltu	a5,s9,117d2 <_vfprintf_r+0x147c>
   117e2:	415787bb          	subw	a5,a5,s5
   117e6:	f43e                	sd	a5,40(sp)
   117e8:	466e                	lw	a2,216(sp)
   117ea:	04700713          	li	a4,71
   117ee:	f032                	sd	a2,32(sp)
   117f0:	38ed0363          	beq	s10,a4,11b76 <_vfprintf_r+0x1820>
   117f4:	04600713          	li	a4,70
   117f8:	50ed0d63          	beq	s10,a4,11d12 <_vfprintf_r+0x19bc>
   117fc:	fff6071b          	addw	a4,a2,-1
   11800:	cdba                	sw	a4,216(sp)
   11802:	06100693          	li	a3,97
   11806:	70de8163          	beq	t4,a3,11f08 <_vfprintf_r+0x1bb2>
   1180a:	04100593          	li	a1,65
   1180e:	05000693          	li	a3,80
   11812:	36be9c63          	bne	t4,a1,11b8a <_vfprintf_r+0x1834>
   11816:	4585                	li	a1,1
   11818:	0ed10023          	sb	a3,224(sp)
   1181c:	02b00693          	li	a3,43
   11820:	00075663          	bgez	a4,1182c <_vfprintf_r+0x14d6>
   11824:	4705                	li	a4,1
   11826:	9f11                	subw	a4,a4,a2
   11828:	02d00693          	li	a3,45
   1182c:	0ed100a3          	sb	a3,225(sp)
   11830:	46a5                	li	a3,9
   11832:	58e6d763          	bge	a3,a4,11dc0 <_vfprintf_r+0x1a6a>
   11836:	0ef10813          	add	a6,sp,239
   1183a:	88c2                	mv	a7,a6
   1183c:	4e29                	li	t3,10
   1183e:	06300f93          	li	t6,99
   11842:	03c767bb          	remw	a5,a4,t3
   11846:	8646                	mv	a2,a7
   11848:	86ba                	mv	a3,a4
   1184a:	18fd                	add	a7,a7,-1
   1184c:	0307879b          	addw	a5,a5,48
   11850:	fef60fa3          	sb	a5,-1(a2)
   11854:	03c7473b          	divw	a4,a4,t3
   11858:	fedfc5e3          	blt	t6,a3,11842 <_vfprintf_r+0x14ec>
   1185c:	0307051b          	addw	a0,a4,48
   11860:	fea88fa3          	sb	a0,-1(a7)
   11864:	ffe60713          	add	a4,a2,-2
   11868:	6f077a63          	bgeu	a4,a6,11f5c <_vfprintf_r+0x1c06>
   1186c:	0e210693          	add	a3,sp,226
   11870:	00074783          	lbu	a5,0(a4)
   11874:	0705                	add	a4,a4,1
   11876:	0685                	add	a3,a3,1
   11878:	fef68fa3          	sb	a5,-1(a3)
   1187c:	ff071ae3          	bne	a4,a6,11870 <_vfprintf_r+0x151a>
   11880:	0f110713          	add	a4,sp,241
   11884:	0e210793          	add	a5,sp,226
   11888:	8f11                	sub	a4,a4,a2
   1188a:	973e                	add	a4,a4,a5
   1188c:	1194                	add	a3,sp,224
   1188e:	40d707bb          	subw	a5,a4,a3
   11892:	f0be                	sd	a5,96(sp)
   11894:	7706                	ld	a4,96(sp)
   11896:	77a2                	ld	a5,40(sp)
   11898:	4605                	li	a2,1
   1189a:	00e78cbb          	addw	s9,a5,a4
   1189e:	8766                	mv	a4,s9
   118a0:	5ef65263          	bge	a2,a5,11e84 <_vfprintf_r+0x1b2e>
   118a4:	67a6                	ld	a5,72(sp)
   118a6:	00f70cbb          	addw	s9,a4,a5
   118aa:	77c2                	ld	a5,48(sp)
   118ac:	fffcc713          	not	a4,s9
   118b0:	977d                	sra	a4,a4,0x3f
   118b2:	bff7f913          	and	s2,a5,-1025
   118b6:	2901                	sext.w	s2,s2
   118b8:	00ecf733          	and	a4,s9,a4
   118bc:	10096913          	or	s2,s2,256
   118c0:	00070b1b          	sext.w	s6,a4
   118c4:	fc02                	sd	zero,56(sp)
   118c6:	f802                	sd	zero,48(sp)
   118c8:	f002                	sd	zero,32(sp)
   118ca:	67aa                	ld	a5,136(sp)
   118cc:	2c078363          	beqz	a5,11b92 <_vfprintf_r+0x183c>
   118d0:	02d00613          	li	a2,45
   118d4:	0cc107a3          	sb	a2,207(sp)
   118d8:	4e01                	li	t3,0
   118da:	2b05                	addw	s6,s6,1
   118dc:	c23fe06f          	j	104fe <_vfprintf_r+0x1a8>
   118e0:	6582                	ld	a1,0(sp)
   118e2:	0210                	add	a2,sp,256
   118e4:	8526                	mv	a0,s1
   118e6:	095060ef          	jal	1817a <__sprint_r>
   118ea:	c6051863          	bnez	a0,10d5a <_vfprintf_r+0xa04>
   118ee:	6d52                	ld	s10,272(sp)
   118f0:	0300                	add	s0,sp,384
   118f2:	e24ff06f          	j	10f16 <_vfprintf_r+0xbc0>
   118f6:	4699                	li	a3,6
   118f8:	b269                	j	11282 <_vfprintf_r+0xf2c>
   118fa:	670a                	ld	a4,128(sp)
   118fc:	40d785bb          	subw	a1,a5,a3
   11900:	866a                	mv	a2,s10
   11902:	41570c33          	sub	s8,a4,s5
   11906:	000c079b          	sext.w	a5,s8
   1190a:	00f5d363          	bge	a1,a5,11910 <_vfprintf_r+0x15ba>
   1190e:	8c2e                	mv	s8,a1
   11910:	2c01                	sext.w	s8,s8
   11912:	e90ff06f          	j	10fa2 <_vfprintf_r+0xc4c>
   11916:	67a2                	ld	a5,8(sp)
   11918:	00f71023          	sh	a5,0(a4)
   1191c:	95eff06f          	j	10a7a <_vfprintf_r+0x724>
   11920:	1b02                	sll	s6,s6,0x20
   11922:	020b5b13          	srl	s6,s6,0x20
   11926:	ec3a                	sd	a4,24(sp)
   11928:	4785                	li	a5,1
   1192a:	878ff06f          	j	109a2 <_vfprintf_r+0x64c>
   1192e:	87da                	mv	a5,s6
   11930:	8e0ff06f          	j	10a10 <_vfprintf_r+0x6ba>
   11934:	1b02                	sll	s6,s6,0x20
   11936:	020b5b13          	srl	s6,s6,0x20
   1193a:	b0d9                	j	11200 <_vfprintf_r+0xeaa>
   1193c:	1b02                	sll	s6,s6,0x20
   1193e:	020b5b13          	srl	s6,s6,0x20
   11942:	910ff06f          	j	10a52 <_vfprintf_r+0x6fc>
   11946:	6582                	ld	a1,0(sp)
   11948:	6506                	ld	a0,64(sp)
   1194a:	0210                	add	a2,sp,256
   1194c:	02f060ef          	jal	1817a <__sprint_r>
   11950:	c9bfe06f          	j	105ea <_vfprintf_r+0x294>
   11954:	0cf14603          	lbu	a2,207(sp)
   11958:	b131                	j	11564 <_vfprintf_r+0x120e>
   1195a:	6582                	ld	a1,0(sp)
   1195c:	0210                	add	a2,sp,256
   1195e:	8526                	mv	a0,s1
   11960:	01b060ef          	jal	1817a <__sprint_r>
   11964:	be051b63          	bnez	a0,10d5a <_vfprintf_r+0xa04>
   11968:	456e                	lw	a0,216(sp)
   1196a:	6652                	ld	a2,272(sp)
   1196c:	10812583          	lw	a1,264(sp)
   11970:	0300                	add	s0,sp,384
   11972:	be9d                	j	114e8 <_vfprintf_r+0x1192>
   11974:	05800713          	li	a4,88
   11978:	00296793          	or	a5,s2,2
   1197c:	03000693          	li	a3,48
   11980:	2781                	sext.w	a5,a5
   11982:	0ce108a3          	sb	a4,209(sp)
   11986:	0cd10823          	sb	a3,208(sp)
   1198a:	06300713          	li	a4,99
   1198e:	f83e                	sd	a5,48(sp)
   11990:	e802                	sd	zero,16(sp)
   11992:	11810a93          	add	s5,sp,280
   11996:	49c74363          	blt	a4,t3,11e1c <_vfprintf_r+0x1ac6>
   1199a:	10296913          	or	s2,s2,258
   1199e:	7b6e                	ld	s6,248(sp)
   119a0:	0009079b          	sext.w	a5,s2
   119a4:	e13e                	sd	a5,128(sp)
   119a6:	e502                	sd	zero,136(sp)
   119a8:	7a4e                	ld	s4,240(sp)
   119aa:	220b4b63          	bltz	s6,11be0 <_vfprintf_r+0x188a>
   119ae:	06100713          	li	a4,97
   119b2:	00ee8463          	beq	t4,a4,119ba <_vfprintf_r+0x1664>
   119b6:	d71fe06f          	j	10726 <_vfprintf_r+0x3d0>
   119ba:	85da                	mv	a1,s6
   119bc:	8552                	mv	a0,s4
   119be:	f472                	sd	t3,40(sp)
   119c0:	f076                	sd	t4,32(sp)
   119c2:	5df0a0ef          	jal	1c7a0 <__trunctfdf2>
   119c6:	09a8                	add	a0,sp,216
   119c8:	74e040ef          	jal	16116 <frexp>
   119cc:	5110a0ef          	jal	1c6dc <__extenddftf2>
   119d0:	0000b717          	auipc	a4,0xb
   119d4:	32070713          	add	a4,a4,800 # 1ccf0 <blanks.1+0x10>
   119d8:	6310                	ld	a2,0(a4)
   119da:	6714                	ld	a3,8(a4)
   119dc:	4c1090ef          	jal	1b69c <__multf3>
   119e0:	4601                	li	a2,0
   119e2:	4681                	li	a3,0
   119e4:	8d2a                	mv	s10,a0
   119e6:	892e                	mv	s2,a1
   119e8:	29b090ef          	jal	1b482 <__eqtf2>
   119ec:	7e82                	ld	t4,32(sp)
   119ee:	7e22                	ld	t3,40(sp)
   119f0:	e119                	bnez	a0,119f6 <_vfprintf_r+0x16a0>
   119f2:	4705                	li	a4,1
   119f4:	cdba                	sw	a4,216(sp)
   119f6:	0000b797          	auipc	a5,0xb
   119fa:	0b278793          	add	a5,a5,178 # 1caa8 <__clzdi2+0x8a>
   119fe:	f03e                	sd	a5,32(sp)
   11a00:	0000b697          	auipc	a3,0xb
   11a04:	30068693          	add	a3,a3,768 # 1cd00 <blanks.1+0x20>
   11a08:	020e1713          	sll	a4,t3,0x20
   11a0c:	629c                	ld	a5,0(a3)
   11a0e:	9301                	srl	a4,a4,0x20
   11a10:	6694                	ld	a3,8(a3)
   11a12:	0705                	add	a4,a4,1
   11a14:	9756                	add	a4,a4,s5
   11a16:	000e061b          	sext.w	a2,t3
   11a1a:	8a56                	mv	s4,s5
   11a1c:	f44e                	sd	s3,40(sp)
   11a1e:	e95e                	sd	s7,144(sp)
   11a20:	f122                	sd	s0,160(sp)
   11a22:	f956                	sd	s5,176(sp)
   11a24:	7402                	ld	s0,32(sp)
   11a26:	89ba                	mv	s3,a4
   11a28:	fc76                	sd	t4,56(sp)
   11a2a:	fd32                	sd	a2,184(sp)
   11a2c:	ed72                	sd	t3,152(sp)
   11a2e:	f526                	sd	s1,168(sp)
   11a30:	8abe                	mv	s5,a5
   11a32:	8bb6                	mv	s7,a3
   11a34:	a039                	j	11a42 <_vfprintf_r+0x16ec>
   11a36:	4601                	li	a2,0
   11a38:	4681                	li	a3,0
   11a3a:	249090ef          	jal	1b482 <__eqtf2>
   11a3e:	40050663          	beqz	a0,11e4a <_vfprintf_r+0x1af4>
   11a42:	8656                	mv	a2,s5
   11a44:	86de                	mv	a3,s7
   11a46:	856a                	mv	a0,s10
   11a48:	85ca                	mv	a1,s2
   11a4a:	453090ef          	jal	1b69c <__multf3>
   11a4e:	84ae                	mv	s1,a1
   11a50:	892a                	mv	s2,a0
   11a52:	3a50a0ef          	jal	1c5f6 <__fixtfsi>
   11a56:	00050b1b          	sext.w	s6,a0
   11a5a:	855a                	mv	a0,s6
   11a5c:	42b0a0ef          	jal	1c686 <__floatsitf>
   11a60:	86ae                	mv	a3,a1
   11a62:	862a                	mv	a2,a0
   11a64:	85a6                	mv	a1,s1
   11a66:	854a                	mv	a0,s2
   11a68:	2560a0ef          	jal	1bcbe <__subtf3>
   11a6c:	01640733          	add	a4,s0,s6
   11a70:	00074683          	lbu	a3,0(a4)
   11a74:	84d2                	mv	s1,s4
   11a76:	0a05                	add	s4,s4,1
   11a78:	feda0fa3          	sb	a3,-1(s4)
   11a7c:	8c2a                	mv	s8,a0
   11a7e:	8d2a                	mv	s10,a0
   11a80:	892e                	mv	s2,a1
   11a82:	fb499ae3          	bne	s3,s4,11a36 <_vfprintf_r+0x16e0>
   11a86:	79a2                	ld	s3,40(sp)
   11a88:	7ee2                	ld	t4,56(sp)
   11a8a:	f426                	sd	s1,40(sp)
   11a8c:	6bca                	ld	s7,144(sp)
   11a8e:	6e6a                	ld	t3,152(sp)
   11a90:	740a                	ld	s0,160(sp)
   11a92:	74aa                	ld	s1,168(sp)
   11a94:	7aca                	ld	s5,176(sp)
   11a96:	8caa                	mv	s9,a0
   11a98:	8c2e                	mv	s8,a1
   11a9a:	597d                	li	s2,-1
   11a9c:	0000b697          	auipc	a3,0xb
   11aa0:	27468693          	add	a3,a3,628 # 1cd10 <blanks.1+0x30>
   11aa4:	0086bd03          	ld	s10,8(a3)
   11aa8:	6290                	ld	a2,0(a3)
   11aaa:	8566                	mv	a0,s9
   11aac:	86ea                	mv	a3,s10
   11aae:	85e2                	mv	a1,s8
   11ab0:	e972                	sd	t3,144(sp)
   11ab2:	fc76                	sd	t4,56(sp)
   11ab4:	ed32                	sd	a2,152(sp)
   11ab6:	267090ef          	jal	1b51c <__getf2>
   11aba:	7ee2                	ld	t4,56(sp)
   11abc:	6e4a                	ld	t3,144(sp)
   11abe:	2aa04f63          	bgtz	a0,11d7c <_vfprintf_r+0x1a26>
   11ac2:	666a                	ld	a2,152(sp)
   11ac4:	86ea                	mv	a3,s10
   11ac6:	8566                	mv	a0,s9
   11ac8:	85e2                	mv	a1,s8
   11aca:	1b9090ef          	jal	1b482 <__eqtf2>
   11ace:	7ee2                	ld	t4,56(sp)
   11ad0:	6e4a                	ld	t3,144(sp)
   11ad2:	e509                	bnez	a0,11adc <_vfprintf_r+0x1786>
   11ad4:	001b7793          	and	a5,s6,1
   11ad8:	2a079263          	bnez	a5,11d7c <_vfprintf_r+0x1a26>
   11adc:	0019079b          	addw	a5,s2,1
   11ae0:	97d2                	add	a5,a5,s4
   11ae2:	03000693          	li	a3,48
   11ae6:	2c094b63          	bltz	s2,11dbc <_vfprintf_r+0x1a66>
   11aea:	0a05                	add	s4,s4,1
   11aec:	feda0fa3          	sb	a3,-1(s4)
   11af0:	ff479de3          	bne	a5,s4,11aea <_vfprintf_r+0x1794>
   11af4:	415787bb          	subw	a5,a5,s5
   11af8:	f43e                	sd	a5,40(sp)
   11afa:	fdfefd13          	and	s10,t4,-33
   11afe:	b1ed                	j	117e8 <_vfprintf_r+0x1492>
   11b00:	6582                	ld	a1,0(sp)
   11b02:	0210                	add	a2,sp,256
   11b04:	8526                	mv	a0,s1
   11b06:	674060ef          	jal	1817a <__sprint_r>
   11b0a:	a4051863          	bnez	a0,10d5a <_vfprintf_r+0xa04>
   11b0e:	6d52                	ld	s10,272(sp)
   11b10:	0300                	add	s0,sp,384
   11b12:	c18ff06f          	j	10f2a <_vfprintf_r+0xbd4>
   11b16:	001e091b          	addw	s2,t3,1
   11b1a:	4689                	li	a3,2
   11b1c:	b991                	j	11770 <_vfprintf_r+0x141a>
   11b1e:	8972                	mv	s2,t3
   11b20:	468d                	li	a3,3
   11b22:	b1b9                	j	11770 <_vfprintf_r+0x141a>
   11b24:	85da                	mv	a1,s6
   11b26:	8552                	mv	a0,s4
   11b28:	f472                	sd	t3,40(sp)
   11b2a:	f076                	sd	t4,32(sp)
   11b2c:	4750a0ef          	jal	1c7a0 <__trunctfdf2>
   11b30:	09a8                	add	a0,sp,216
   11b32:	5e4040ef          	jal	16116 <frexp>
   11b36:	3a70a0ef          	jal	1c6dc <__extenddftf2>
   11b3a:	0000b717          	auipc	a4,0xb
   11b3e:	1b670713          	add	a4,a4,438 # 1ccf0 <blanks.1+0x10>
   11b42:	6310                	ld	a2,0(a4)
   11b44:	6714                	ld	a3,8(a4)
   11b46:	357090ef          	jal	1b69c <__multf3>
   11b4a:	4601                	li	a2,0
   11b4c:	4681                	li	a3,0
   11b4e:	8d2a                	mv	s10,a0
   11b50:	892e                	mv	s2,a1
   11b52:	131090ef          	jal	1b482 <__eqtf2>
   11b56:	7e82                	ld	t4,32(sp)
   11b58:	7e22                	ld	t3,40(sp)
   11b5a:	e119                	bnez	a0,11b60 <_vfprintf_r+0x180a>
   11b5c:	4705                	li	a4,1
   11b5e:	cdba                	sw	a4,216(sp)
   11b60:	0000b797          	auipc	a5,0xb
   11b64:	f3078793          	add	a5,a5,-208 # 1ca90 <__clzdi2+0x72>
   11b68:	f03e                	sd	a5,32(sp)
   11b6a:	bd59                	j	11a00 <_vfprintf_r+0x16aa>
   11b6c:	77ae                	ld	a5,232(sp)
   11b6e:	466e                	lw	a2,216(sp)
   11b70:	415787bb          	subw	a5,a5,s5
   11b74:	f43e                	sd	a5,40(sp)
   11b76:	5775                	li	a4,-3
   11b78:	f032                	sd	a2,32(sp)
   11b7a:	00e64463          	blt	a2,a4,11b82 <_vfprintf_r+0x182c>
   11b7e:	02ce5263          	bge	t3,a2,11ba2 <_vfprintf_r+0x184c>
   11b82:	fff6071b          	addw	a4,a2,-1
   11b86:	3ef9                	addw	t4,t4,-2
   11b88:	cdba                	sw	a4,216(sp)
   11b8a:	0ffef693          	zext.b	a3,t4
   11b8e:	4581                	li	a1,0
   11b90:	b161                	j	11818 <_vfprintf_r+0x14c2>
   11b92:	0cf14603          	lbu	a2,207(sp)
   11b96:	4e01                	li	t3,0
   11b98:	c219                	beqz	a2,11b9e <_vfprintf_r+0x1848>
   11b9a:	d0dfe06f          	j	108a6 <_vfprintf_r+0x550>
   11b9e:	961fe06f          	j	104fe <_vfprintf_r+0x1a8>
   11ba2:	77a2                	ld	a5,40(sp)
   11ba4:	1af64263          	blt	a2,a5,11d48 <_vfprintf_r+0x19f2>
   11ba8:	77c2                	ld	a5,48(sp)
   11baa:	8cb2                	mv	s9,a2
   11bac:	0017f713          	and	a4,a5,1
   11bb0:	c701                	beqz	a4,11bb8 <_vfprintf_r+0x1862>
   11bb2:	67a6                	ld	a5,72(sp)
   11bb4:	00c78cbb          	addw	s9,a5,a2
   11bb8:	77c2                	ld	a5,48(sp)
   11bba:	4007f713          	and	a4,a5,1024
   11bbe:	c319                	beqz	a4,11bc4 <_vfprintf_r+0x186e>
   11bc0:	2cc04863          	bgtz	a2,11e90 <_vfprintf_r+0x1b3a>
   11bc4:	fffcc713          	not	a4,s9
   11bc8:	977d                	sra	a4,a4,0x3f
   11bca:	690a                	ld	s2,128(sp)
   11bcc:	00ecf733          	and	a4,s9,a4
   11bd0:	00070b1b          	sext.w	s6,a4
   11bd4:	06700e93          	li	t4,103
   11bd8:	fc02                	sd	zero,56(sp)
   11bda:	f802                	sd	zero,48(sp)
   11bdc:	b1fd                	j	118ca <_vfprintf_r+0x1574>
   11bde:	e802                	sd	zero,16(sp)
   11be0:	577d                	li	a4,-1
   11be2:	177e                	sll	a4,a4,0x3f
   11be4:	02d00793          	li	a5,45
   11be8:	00eb4b33          	xor	s6,s6,a4
   11bec:	e53e                	sd	a5,136(sp)
   11bee:	b3c1                	j	119ae <_vfprintf_r+0x1658>
   11bf0:	77c2                	ld	a5,48(sp)
   11bf2:	0017f713          	and	a4,a5,1
   11bf6:	db3d                	beqz	a4,11b6c <_vfprintf_r+0x1816>
   11bf8:	012a8cb3          	add	s9,s5,s2
   11bfc:	04700d13          	li	s10,71
   11c00:	be45                	j	117b0 <_vfprintf_r+0x145a>
   11c02:	0210                	add	a2,sp,256
   11c04:	85e2                	mv	a1,s8
   11c06:	8526                	mv	a0,s1
   11c08:	572060ef          	jal	1817a <__sprint_r>
   11c0c:	94051763          	bnez	a0,10d5a <_vfprintf_r+0xa04>
   11c10:	000ac603          	lbu	a2,0(s5)
   11c14:	66d2                	ld	a3,272(sp)
   11c16:	031c                	add	a5,sp,384
   11c18:	489d                	li	a7,7
   11c1a:	9b32                	add	s6,s6,a2
   11c1c:	bcb1                	j	11678 <_vfprintf_r+0x1322>
   11c1e:	07800713          	li	a4,120
   11c22:	bb99                	j	11978 <_vfprintf_r+0x1622>
   11c24:	02d00793          	li	a5,45
   11c28:	0cf107a3          	sb	a5,207(sp)
   11c2c:	02d00613          	li	a2,45
   11c30:	81bff06f          	j	1144a <_vfprintf_r+0x10f4>
   11c34:	6582                	ld	a1,0(sp)
   11c36:	0210                	add	a2,sp,256
   11c38:	8526                	mv	a0,s1
   11c3a:	540060ef          	jal	1817a <__sprint_r>
   11c3e:	90051e63          	bnez	a0,10d5a <_vfprintf_r+0xa04>
   11c42:	46ee                	lw	a3,216(sp)
   11c44:	6652                	ld	a2,272(sp)
   11c46:	0300                	add	s0,sp,384
   11c48:	b20ff06f          	j	10f68 <_vfprintf_r+0xc12>
   11c4c:	0cf14603          	lbu	a2,207(sp)
   11c50:	ec52                	sd	s4,24(sp)
   11c52:	fc02                	sd	zero,56(sp)
   11c54:	f802                	sd	zero,48(sp)
   11c56:	f002                	sd	zero,32(sp)
   11c58:	8b72                	mv	s6,t3
   11c5a:	8cf2                	mv	s9,t3
   11c5c:	4e01                	li	t3,0
   11c5e:	c219                	beqz	a2,11c64 <_vfprintf_r+0x190e>
   11c60:	c47fe06f          	j	108a6 <_vfprintf_r+0x550>
   11c64:	89bfe06f          	j	104fe <_vfprintf_r+0x1a8>
   11c68:	00054683          	lbu	a3,0(a0)
   11c6c:	03000713          	li	a4,48
   11c70:	00e68563          	beq	a3,a4,11c7a <_vfprintf_r+0x1924>
   11c74:	46ee                	lw	a3,216(sp)
   11c76:	9cb6                	add	s9,s9,a3
   11c78:	be25                	j	117b0 <_vfprintf_r+0x145a>
   11c7a:	4601                	li	a2,0
   11c7c:	4681                	li	a3,0
   11c7e:	8552                	mv	a0,s4
   11c80:	85da                	mv	a1,s6
   11c82:	f472                	sd	t3,40(sp)
   11c84:	f076                	sd	t4,32(sp)
   11c86:	7fc090ef          	jal	1b482 <__eqtf2>
   11c8a:	7e82                	ld	t4,32(sp)
   11c8c:	7e22                	ld	t3,40(sp)
   11c8e:	d17d                	beqz	a0,11c74 <_vfprintf_r+0x191e>
   11c90:	4705                	li	a4,1
   11c92:	412706bb          	subw	a3,a4,s2
   11c96:	cdb6                	sw	a3,216(sp)
   11c98:	9cb6                	add	s9,s9,a3
   11c9a:	be19                	j	117b0 <_vfprintf_r+0x145a>
   11c9c:	6582                	ld	a1,0(sp)
   11c9e:	0210                	add	a2,sp,256
   11ca0:	8526                	mv	a0,s1
   11ca2:	4d8060ef          	jal	1817a <__sprint_r>
   11ca6:	c119                	beqz	a0,11cac <_vfprintf_r+0x1956>
   11ca8:	8b2ff06f          	j	10d5a <_vfprintf_r+0xa04>
   11cac:	45ee                	lw	a1,216(sp)
   11cae:	77a2                	ld	a5,40(sp)
   11cb0:	6652                	ld	a2,272(sp)
   11cb2:	0300                	add	s0,sp,384
   11cb4:	40b785bb          	subw	a1,a5,a1
   11cb8:	aeaff06f          	j	10fa2 <_vfprintf_r+0xc4c>
   11cbc:	8c4a                	mv	s8,s2
   11cbe:	96aff06f          	j	10e28 <_vfprintf_r+0xad2>
   11cc2:	56c1                	li	a3,-16
   11cc4:	40a00c3b          	negw	s8,a0
   11cc8:	0000bd17          	auipc	s10,0xb
   11ccc:	008d0d13          	add	s10,s10,8 # 1ccd0 <zeroes.0>
   11cd0:	4cc1                	li	s9,16
   11cd2:	4a1d                	li	s4,7
   11cd4:	00d54663          	blt	a0,a3,11ce0 <_vfprintf_r+0x198a>
   11cd8:	aa01                	j	11de8 <_vfprintf_r+0x1a92>
   11cda:	3c41                	addw	s8,s8,-16
   11cdc:	118cd663          	bge	s9,s8,11de8 <_vfprintf_r+0x1a92>
   11ce0:	2585                	addw	a1,a1,1
   11ce2:	0641                	add	a2,a2,16
   11ce4:	01a43023          	sd	s10,0(s0)
   11ce8:	01943423          	sd	s9,8(s0)
   11cec:	ea32                	sd	a2,272(sp)
   11cee:	10b12423          	sw	a1,264(sp)
   11cf2:	0441                	add	s0,s0,16
   11cf4:	feba53e3          	bge	s4,a1,11cda <_vfprintf_r+0x1984>
   11cf8:	6582                	ld	a1,0(sp)
   11cfa:	0210                	add	a2,sp,256
   11cfc:	8526                	mv	a0,s1
   11cfe:	47c060ef          	jal	1817a <__sprint_r>
   11d02:	c119                	beqz	a0,11d08 <_vfprintf_r+0x19b2>
   11d04:	856ff06f          	j	10d5a <_vfprintf_r+0xa04>
   11d08:	6652                	ld	a2,272(sp)
   11d0a:	10812583          	lw	a1,264(sp)
   11d0e:	0300                	add	s0,sp,384
   11d10:	b7e9                	j	11cda <_vfprintf_r+0x1984>
   11d12:	77c2                	ld	a5,48(sp)
   11d14:	0017f713          	and	a4,a5,1
   11d18:	7782                	ld	a5,32(sp)
   11d1a:	00ee6733          	or	a4,t3,a4
   11d1e:	20f05763          	blez	a5,11f2c <_vfprintf_r+0x1bd6>
   11d22:	1c071b63          	bnez	a4,11ef8 <_vfprintf_r+0x1ba2>
   11d26:	7c82                	ld	s9,32(sp)
   11d28:	06600e93          	li	t4,102
   11d2c:	77c2                	ld	a5,48(sp)
   11d2e:	4007f713          	and	a4,a5,1024
   11d32:	16071163          	bnez	a4,11e94 <_vfprintf_r+0x1b3e>
   11d36:	fffcc713          	not	a4,s9
   11d3a:	977d                	sra	a4,a4,0x3f
   11d3c:	00ecf733          	and	a4,s9,a4
   11d40:	690a                	ld	s2,128(sp)
   11d42:	00070b1b          	sext.w	s6,a4
   11d46:	bd49                	j	11bd8 <_vfprintf_r+0x1882>
   11d48:	67a6                	ld	a5,72(sp)
   11d4a:	7722                	ld	a4,40(sp)
   11d4c:	06700e93          	li	t4,103
   11d50:	00e78cbb          	addw	s9,a5,a4
   11d54:	7782                	ld	a5,32(sp)
   11d56:	fcf04be3          	bgtz	a5,11d2c <_vfprintf_r+0x19d6>
   11d5a:	40fc873b          	subw	a4,s9,a5
   11d5e:	2705                	addw	a4,a4,1
   11d60:	00070c9b          	sext.w	s9,a4
   11d64:	fffcc613          	not	a2,s9
   11d68:	967d                	sra	a2,a2,0x3f
   11d6a:	8f71                	and	a4,a4,a2
   11d6c:	690a                	ld	s2,128(sp)
   11d6e:	00070b1b          	sext.w	s6,a4
   11d72:	b59d                	j	11bd8 <_vfprintf_r+0x1882>
   11d74:	57fd                	li	a5,-1
   11d76:	e43e                	sd	a5,8(sp)
   11d78:	883fe06f          	j	105fa <_vfprintf_r+0x2a4>
   11d7c:	77a2                	ld	a5,40(sp)
   11d7e:	86d2                	mv	a3,s4
   11d80:	f5be                	sd	a5,232(sp)
   11d82:	7782                	ld	a5,32(sp)
   11d84:	fffa4603          	lbu	a2,-1(s4)
   11d88:	00f7c583          	lbu	a1,15(a5)
   11d8c:	00c59e63          	bne	a1,a2,11da8 <_vfprintf_r+0x1a52>
   11d90:	03000513          	li	a0,48
   11d94:	fea68fa3          	sb	a0,-1(a3)
   11d98:	76ae                	ld	a3,232(sp)
   11d9a:	fff68793          	add	a5,a3,-1
   11d9e:	f5be                	sd	a5,232(sp)
   11da0:	fff6c603          	lbu	a2,-1(a3)
   11da4:	fec588e3          	beq	a1,a2,11d94 <_vfprintf_r+0x1a3e>
   11da8:	0016059b          	addw	a1,a2,1
   11dac:	03900513          	li	a0,57
   11db0:	0ff5f593          	zext.b	a1,a1
   11db4:	08a60263          	beq	a2,a0,11e38 <_vfprintf_r+0x1ae2>
   11db8:	feb68fa3          	sb	a1,-1(a3)
   11dbc:	87d2                	mv	a5,s4
   11dbe:	bb1d                	j	11af4 <_vfprintf_r+0x179e>
   11dc0:	0e210693          	add	a3,sp,226
   11dc4:	e599                	bnez	a1,11dd2 <_vfprintf_r+0x1a7c>
   11dc6:	03000693          	li	a3,48
   11dca:	0ed10123          	sb	a3,226(sp)
   11dce:	0e310693          	add	a3,sp,227
   11dd2:	041c                	add	a5,sp,512
   11dd4:	40f68633          	sub	a2,a3,a5
   11dd8:	0307071b          	addw	a4,a4,48
   11ddc:	1216079b          	addw	a5,a2,289
   11de0:	00e68023          	sb	a4,0(a3)
   11de4:	f0be                	sd	a5,96(sp)
   11de6:	b47d                	j	11894 <_vfprintf_r+0x153e>
   11de8:	2585                	addw	a1,a1,1
   11dea:	9662                	add	a2,a2,s8
   11dec:	01a43023          	sd	s10,0(s0)
   11df0:	01843423          	sd	s8,8(s0)
   11df4:	ea32                	sd	a2,272(sp)
   11df6:	10b12423          	sw	a1,264(sp)
   11dfa:	469d                	li	a3,7
   11dfc:	deb6d363          	bge	a3,a1,113e2 <_vfprintf_r+0x108c>
   11e00:	6582                	ld	a1,0(sp)
   11e02:	0210                	add	a2,sp,256
   11e04:	8526                	mv	a0,s1
   11e06:	374060ef          	jal	1817a <__sprint_r>
   11e0a:	c119                	beqz	a0,11e10 <_vfprintf_r+0x1aba>
   11e0c:	f4ffe06f          	j	10d5a <_vfprintf_r+0xa04>
   11e10:	6652                	ld	a2,272(sp)
   11e12:	10812583          	lw	a1,264(sp)
   11e16:	0300                	add	s0,sp,384
   11e18:	ed4ff06f          	j	114ec <_vfprintf_r+0x1196>
   11e1c:	001e059b          	addw	a1,t3,1
   11e20:	8526                	mv	a0,s1
   11e22:	f076                	sd	t4,32(sp)
   11e24:	e872                	sd	t3,16(sp)
   11e26:	78b020ef          	jal	14db0 <_malloc_r>
   11e2a:	6e42                	ld	t3,16(sp)
   11e2c:	7e82                	ld	t4,32(sp)
   11e2e:	8aaa                	mv	s5,a0
   11e30:	12050c63          	beqz	a0,11f68 <_vfprintf_r+0x1c12>
   11e34:	e82a                	sd	a0,16(sp)
   11e36:	b695                	j	1199a <_vfprintf_r+0x1644>
   11e38:	7782                	ld	a5,32(sp)
   11e3a:	00a7c583          	lbu	a1,10(a5)
   11e3e:	feb68fa3          	sb	a1,-1(a3)
   11e42:	bfad                	j	11dbc <_vfprintf_r+0x1a66>
   11e44:	c31c                	sw	a5,0(a4)
   11e46:	c35fe06f          	j	10a7a <_vfprintf_r+0x724>
   11e4a:	766a                	ld	a2,184(sp)
   11e4c:	7aca                	ld	s5,176(sp)
   11e4e:	79a2                	ld	s3,40(sp)
   11e50:	8ce2                	mv	s9,s8
   11e52:	00ca863b          	addw	a2,s5,a2
   11e56:	f426                	sd	s1,40(sp)
   11e58:	8c4a                	mv	s8,s2
   11e5a:	7ee2                	ld	t4,56(sp)
   11e5c:	6bca                	ld	s7,144(sp)
   11e5e:	6e6a                	ld	t3,152(sp)
   11e60:	740a                	ld	s0,160(sp)
   11e62:	74aa                	ld	s1,168(sp)
   11e64:	4146093b          	subw	s2,a2,s4
   11e68:	b915                	j	11a9c <_vfprintf_r+0x1746>
   11e6a:	000e0463          	beqz	t3,11e72 <_vfprintf_r+0x1b1c>
   11e6e:	89dfe06f          	j	1070a <_vfprintf_r+0x3b4>
   11e72:	4e05                	li	t3,1
   11e74:	897fe06f          	j	1070a <_vfprintf_r+0x3b4>
   11e78:	4e19                	li	t3,6
   11e7a:	891fe06f          	j	1070a <_vfprintf_r+0x3b4>
   11e7e:	ec3a                	sd	a4,24(sp)
   11e80:	fa9fe06f          	j	10e28 <_vfprintf_r+0xad2>
   11e84:	77c2                	ld	a5,48(sp)
   11e86:	0017f613          	and	a2,a5,1
   11e8a:	a20600e3          	beqz	a2,118aa <_vfprintf_r+0x1554>
   11e8e:	bc19                	j	118a4 <_vfprintf_r+0x154e>
   11e90:	06700e93          	li	t4,103
   11e94:	76a6                	ld	a3,104(sp)
   11e96:	0ff00613          	li	a2,255
   11e9a:	0006c703          	lbu	a4,0(a3)
   11e9e:	0cc70263          	beq	a4,a2,11f62 <_vfprintf_r+0x1c0c>
   11ea2:	7782                	ld	a5,32(sp)
   11ea4:	4801                	li	a6,0
   11ea6:	4501                	li	a0,0
   11ea8:	0ff00593          	li	a1,255
   11eac:	0007061b          	sext.w	a2,a4
   11eb0:	00f75a63          	bge	a4,a5,11ec4 <_vfprintf_r+0x1b6e>
   11eb4:	0016c703          	lbu	a4,1(a3)
   11eb8:	9f91                	subw	a5,a5,a2
   11eba:	cb1d                	beqz	a4,11ef0 <_vfprintf_r+0x1b9a>
   11ebc:	2505                	addw	a0,a0,1
   11ebe:	0685                	add	a3,a3,1
   11ec0:	feb716e3          	bne	a4,a1,11eac <_vfprintf_r+0x1b56>
   11ec4:	f03e                	sd	a5,32(sp)
   11ec6:	f4b6                	sd	a3,104(sp)
   11ec8:	f82a                	sd	a0,48(sp)
   11eca:	fc42                	sd	a6,56(sp)
   11ecc:	77e2                	ld	a5,56(sp)
   11ece:	7742                	ld	a4,48(sp)
   11ed0:	690a                	ld	s2,128(sp)
   11ed2:	9f3d                	addw	a4,a4,a5
   11ed4:	77c6                	ld	a5,112(sp)
   11ed6:	02f7073b          	mulw	a4,a4,a5
   11eda:	0197073b          	addw	a4,a4,s9
   11ede:	00070c9b          	sext.w	s9,a4
   11ee2:	fffcc613          	not	a2,s9
   11ee6:	967d                	sra	a2,a2,0x3f
   11ee8:	8f71                	and	a4,a4,a2
   11eea:	00070b1b          	sext.w	s6,a4
   11eee:	baf1                	j	118ca <_vfprintf_r+0x1574>
   11ef0:	0006c703          	lbu	a4,0(a3)
   11ef4:	2805                	addw	a6,a6,1
   11ef6:	b7e9                	j	11ec0 <_vfprintf_r+0x1b6a>
   11ef8:	6726                	ld	a4,72(sp)
   11efa:	06600e93          	li	t4,102
   11efe:	00f706bb          	addw	a3,a4,a5
   11f02:	01c68cbb          	addw	s9,a3,t3
   11f06:	b51d                	j	11d2c <_vfprintf_r+0x19d6>
   11f08:	07000693          	li	a3,112
   11f0c:	b229                	j	11816 <_vfprintf_r+0x14c0>
   11f0e:	66e2                	ld	a3,24(sp)
   11f10:	4298                	lw	a4,0(a3)
   11f12:	06a1                	add	a3,a3,8
   11f14:	8e3a                	mv	t3,a4
   11f16:	00075363          	bgez	a4,11f1c <_vfprintf_r+0x1bc6>
   11f1a:	5e7d                	li	t3,-1
   11f1c:	0019ce83          	lbu	t4,1(s3)
   11f20:	000e0a1b          	sext.w	s4,t3
   11f24:	ec36                	sd	a3,24(sp)
   11f26:	89be                	mv	s3,a5
   11f28:	d5afe06f          	j	10482 <_vfprintf_r+0x12c>
   11f2c:	e719                	bnez	a4,11f3a <_vfprintf_r+0x1be4>
   11f2e:	690a                	ld	s2,128(sp)
   11f30:	4b05                	li	s6,1
   11f32:	06600e93          	li	t4,102
   11f36:	4c85                	li	s9,1
   11f38:	b145                	j	11bd8 <_vfprintf_r+0x1882>
   11f3a:	67a6                	ld	a5,72(sp)
   11f3c:	690a                	ld	s2,128(sp)
   11f3e:	06600e93          	li	t4,102
   11f42:	0017871b          	addw	a4,a5,1
   11f46:	01c7073b          	addw	a4,a4,t3
   11f4a:	00070c9b          	sext.w	s9,a4
   11f4e:	fffcc613          	not	a2,s9
   11f52:	967d                	sra	a2,a2,0x3f
   11f54:	8f71                	and	a4,a4,a2
   11f56:	00070b1b          	sext.w	s6,a4
   11f5a:	b9bd                	j	11bd8 <_vfprintf_r+0x1882>
   11f5c:	4789                	li	a5,2
   11f5e:	f0be                	sd	a5,96(sp)
   11f60:	ba15                	j	11894 <_vfprintf_r+0x153e>
   11f62:	fc02                	sd	zero,56(sp)
   11f64:	f802                	sd	zero,48(sp)
   11f66:	b79d                	j	11ecc <_vfprintf_r+0x1b76>
   11f68:	6702                	ld	a4,0(sp)
   11f6a:	01075783          	lhu	a5,16(a4)
   11f6e:	0407e793          	or	a5,a5,64
   11f72:	00f71823          	sh	a5,16(a4)
   11f76:	e74fe06f          	j	105ea <_vfprintf_r+0x294>

0000000000011f7a <vfprintf>:
   11f7a:	86b2                	mv	a3,a2
   11f7c:	862e                	mv	a2,a1
   11f7e:	85aa                	mv	a1,a0
   11f80:	7581b503          	ld	a0,1880(gp) # 1fac8 <_impure_ptr>
   11f84:	bd2fe06f          	j	10356 <_vfprintf_r>

0000000000011f88 <__sbprintf>:
   11f88:	01059783          	lh	a5,16(a1)
   11f8c:	0125d703          	lhu	a4,18(a1)
   11f90:	0ac5a303          	lw	t1,172(a1)
   11f94:	9bf5                	and	a5,a5,-3
   11f96:	0107979b          	sllw	a5,a5,0x10
   11f9a:	0305b883          	ld	a7,48(a1)
   11f9e:	0405b803          	ld	a6,64(a1)
   11fa2:	0107171b          	sllw	a4,a4,0x10
   11fa6:	0107d79b          	srlw	a5,a5,0x10
   11faa:	b3010113          	add	sp,sp,-1232
   11fae:	8fd9                	or	a5,a5,a4
   11fb0:	4c813023          	sd	s0,1216(sp)
   11fb4:	40000713          	li	a4,1024
   11fb8:	c83e                	sw	a5,16(sp)
   11fba:	842e                	mv	s0,a1
   11fbc:	191c                	add	a5,sp,176
   11fbe:	858a                	mv	a1,sp
   11fc0:	4a913c23          	sd	s1,1208(sp)
   11fc4:	4b213823          	sd	s2,1200(sp)
   11fc8:	4c113423          	sd	ra,1224(sp)
   11fcc:	892a                	mv	s2,a0
   11fce:	d71a                	sw	t1,172(sp)
   11fd0:	f846                	sd	a7,48(sp)
   11fd2:	e0c2                	sd	a6,64(sp)
   11fd4:	e03e                	sd	a5,0(sp)
   11fd6:	ec3e                	sd	a5,24(sp)
   11fd8:	c63a                	sw	a4,12(sp)
   11fda:	d03a                	sw	a4,32(sp)
   11fdc:	d402                	sw	zero,40(sp)
   11fde:	b78fe0ef          	jal	10356 <_vfprintf_r>
   11fe2:	84aa                	mv	s1,a0
   11fe4:	02055963          	bgez	a0,12016 <__sbprintf+0x8e>
   11fe8:	01015783          	lhu	a5,16(sp)
   11fec:	0407f793          	and	a5,a5,64
   11ff0:	c799                	beqz	a5,11ffe <__sbprintf+0x76>
   11ff2:	01045783          	lhu	a5,16(s0)
   11ff6:	0407e793          	or	a5,a5,64
   11ffa:	00f41823          	sh	a5,16(s0)
   11ffe:	4c813083          	ld	ra,1224(sp)
   12002:	4c013403          	ld	s0,1216(sp)
   12006:	4b013903          	ld	s2,1200(sp)
   1200a:	8526                	mv	a0,s1
   1200c:	4b813483          	ld	s1,1208(sp)
   12010:	4d010113          	add	sp,sp,1232
   12014:	8082                	ret
   12016:	858a                	mv	a1,sp
   12018:	854a                	mv	a0,s2
   1201a:	336000ef          	jal	12350 <_fflush_r>
   1201e:	d569                	beqz	a0,11fe8 <__sbprintf+0x60>
   12020:	54fd                	li	s1,-1
   12022:	b7d9                	j	11fe8 <__sbprintf+0x60>

0000000000012024 <__swsetup_r>:
   12024:	1101                	add	sp,sp,-32
   12026:	e822                	sd	s0,16(sp)
   12028:	e426                	sd	s1,8(sp)
   1202a:	ec06                	sd	ra,24(sp)
   1202c:	7581b783          	ld	a5,1880(gp) # 1fac8 <_impure_ptr>
   12030:	84aa                	mv	s1,a0
   12032:	842e                	mv	s0,a1
   12034:	c399                	beqz	a5,1203a <__swsetup_r+0x16>
   12036:	4bb8                	lw	a4,80(a5)
   12038:	cb29                	beqz	a4,1208a <__swsetup_r+0x66>
   1203a:	01041783          	lh	a5,16(s0)
   1203e:	0087f713          	and	a4,a5,8
   12042:	cf21                	beqz	a4,1209a <__swsetup_r+0x76>
   12044:	6c18                	ld	a4,24(s0)
   12046:	c735                	beqz	a4,120b2 <__swsetup_r+0x8e>
   12048:	0017f693          	and	a3,a5,1
   1204c:	ce91                	beqz	a3,12068 <__swsetup_r+0x44>
   1204e:	5014                	lw	a3,32(s0)
   12050:	00042623          	sw	zero,12(s0)
   12054:	4501                	li	a0,0
   12056:	40d006bb          	negw	a3,a3
   1205a:	d414                	sw	a3,40(s0)
   1205c:	cf11                	beqz	a4,12078 <__swsetup_r+0x54>
   1205e:	60e2                	ld	ra,24(sp)
   12060:	6442                	ld	s0,16(sp)
   12062:	64a2                	ld	s1,8(sp)
   12064:	6105                	add	sp,sp,32
   12066:	8082                	ret
   12068:	0027f693          	and	a3,a5,2
   1206c:	4601                	li	a2,0
   1206e:	e291                	bnez	a3,12072 <__swsetup_r+0x4e>
   12070:	5010                	lw	a2,32(s0)
   12072:	c450                	sw	a2,12(s0)
   12074:	4501                	li	a0,0
   12076:	f765                	bnez	a4,1205e <__swsetup_r+0x3a>
   12078:	0807f713          	and	a4,a5,128
   1207c:	d36d                	beqz	a4,1205e <__swsetup_r+0x3a>
   1207e:	0407e793          	or	a5,a5,64
   12082:	00f41823          	sh	a5,16(s0)
   12086:	557d                	li	a0,-1
   12088:	bfd9                	j	1205e <__swsetup_r+0x3a>
   1208a:	853e                	mv	a0,a5
   1208c:	5a6000ef          	jal	12632 <__sinit>
   12090:	01041783          	lh	a5,16(s0)
   12094:	0087f713          	and	a4,a5,8
   12098:	f755                	bnez	a4,12044 <__swsetup_r+0x20>
   1209a:	0107f713          	and	a4,a5,16
   1209e:	cf21                	beqz	a4,120f6 <__swsetup_r+0xd2>
   120a0:	0047f713          	and	a4,a5,4
   120a4:	e70d                	bnez	a4,120ce <__swsetup_r+0xaa>
   120a6:	6c18                	ld	a4,24(s0)
   120a8:	0087e793          	or	a5,a5,8
   120ac:	00f41823          	sh	a5,16(s0)
   120b0:	ff41                	bnez	a4,12048 <__swsetup_r+0x24>
   120b2:	2807f693          	and	a3,a5,640
   120b6:	20000613          	li	a2,512
   120ba:	f8c687e3          	beq	a3,a2,12048 <__swsetup_r+0x24>
   120be:	85a2                	mv	a1,s0
   120c0:	8526                	mv	a0,s1
   120c2:	351020ef          	jal	14c12 <__smakebuf_r>
   120c6:	01041783          	lh	a5,16(s0)
   120ca:	6c18                	ld	a4,24(s0)
   120cc:	bfb5                	j	12048 <__swsetup_r+0x24>
   120ce:	6c2c                	ld	a1,88(s0)
   120d0:	cd81                	beqz	a1,120e8 <__swsetup_r+0xc4>
   120d2:	07440713          	add	a4,s0,116
   120d6:	00e58763          	beq	a1,a4,120e4 <__swsetup_r+0xc0>
   120da:	8526                	mv	a0,s1
   120dc:	68e000ef          	jal	1276a <_free_r>
   120e0:	01041783          	lh	a5,16(s0)
   120e4:	04043c23          	sd	zero,88(s0)
   120e8:	6c18                	ld	a4,24(s0)
   120ea:	fdb7f793          	and	a5,a5,-37
   120ee:	00042423          	sw	zero,8(s0)
   120f2:	e018                	sd	a4,0(s0)
   120f4:	bf55                	j	120a8 <__swsetup_r+0x84>
   120f6:	4725                	li	a4,9
   120f8:	c098                	sw	a4,0(s1)
   120fa:	0407e793          	or	a5,a5,64
   120fe:	b751                	j	12082 <__swsetup_r+0x5e>

0000000000012100 <__call_exitprocs>:
   12100:	715d                	add	sp,sp,-80
   12102:	f052                	sd	s4,32(sp)
   12104:	7481ba03          	ld	s4,1864(gp) # 1fab8 <_global_impure_ptr>
   12108:	f84a                	sd	s2,48(sp)
   1210a:	1f8a3903          	ld	s2,504(s4)
   1210e:	e486                	sd	ra,72(sp)
   12110:	e0a2                	sd	s0,64(sp)
   12112:	fc26                	sd	s1,56(sp)
   12114:	f44e                	sd	s3,40(sp)
   12116:	ec56                	sd	s5,24(sp)
   12118:	e85a                	sd	s6,16(sp)
   1211a:	e45e                	sd	s7,8(sp)
   1211c:	e062                	sd	s8,0(sp)
   1211e:	02090863          	beqz	s2,1214e <__call_exitprocs+0x4e>
   12122:	8b2a                	mv	s6,a0
   12124:	8bae                	mv	s7,a1
   12126:	4a85                	li	s5,1
   12128:	59fd                	li	s3,-1
   1212a:	00892483          	lw	s1,8(s2)
   1212e:	fff4841b          	addw	s0,s1,-1
   12132:	00044e63          	bltz	s0,1214e <__call_exitprocs+0x4e>
   12136:	048e                	sll	s1,s1,0x3
   12138:	94ca                	add	s1,s1,s2
   1213a:	020b8663          	beqz	s7,12166 <__call_exitprocs+0x66>
   1213e:	2084b783          	ld	a5,520(s1)
   12142:	03778263          	beq	a5,s7,12166 <__call_exitprocs+0x66>
   12146:	347d                	addw	s0,s0,-1
   12148:	14e1                	add	s1,s1,-8
   1214a:	ff3418e3          	bne	s0,s3,1213a <__call_exitprocs+0x3a>
   1214e:	60a6                	ld	ra,72(sp)
   12150:	6406                	ld	s0,64(sp)
   12152:	74e2                	ld	s1,56(sp)
   12154:	7942                	ld	s2,48(sp)
   12156:	79a2                	ld	s3,40(sp)
   12158:	7a02                	ld	s4,32(sp)
   1215a:	6ae2                	ld	s5,24(sp)
   1215c:	6b42                	ld	s6,16(sp)
   1215e:	6ba2                	ld	s7,8(sp)
   12160:	6c02                	ld	s8,0(sp)
   12162:	6161                	add	sp,sp,80
   12164:	8082                	ret
   12166:	00892783          	lw	a5,8(s2)
   1216a:	6498                	ld	a4,8(s1)
   1216c:	37fd                	addw	a5,a5,-1
   1216e:	04878463          	beq	a5,s0,121b6 <__call_exitprocs+0xb6>
   12172:	0004b423          	sd	zero,8(s1)
   12176:	db61                	beqz	a4,12146 <__call_exitprocs+0x46>
   12178:	31092783          	lw	a5,784(s2)
   1217c:	008a96bb          	sllw	a3,s5,s0
   12180:	00892c03          	lw	s8,8(s2)
   12184:	8ff5                	and	a5,a5,a3
   12186:	2781                	sext.w	a5,a5
   12188:	ef89                	bnez	a5,121a2 <__call_exitprocs+0xa2>
   1218a:	9702                	jalr	a4
   1218c:	00892703          	lw	a4,8(s2)
   12190:	1f8a3783          	ld	a5,504(s4)
   12194:	01871463          	bne	a4,s8,1219c <__call_exitprocs+0x9c>
   12198:	fb2787e3          	beq	a5,s2,12146 <__call_exitprocs+0x46>
   1219c:	dbcd                	beqz	a5,1214e <__call_exitprocs+0x4e>
   1219e:	893e                	mv	s2,a5
   121a0:	b769                	j	1212a <__call_exitprocs+0x2a>
   121a2:	31492783          	lw	a5,788(s2)
   121a6:	1084b583          	ld	a1,264(s1)
   121aa:	8ff5                	and	a5,a5,a3
   121ac:	2781                	sext.w	a5,a5
   121ae:	e799                	bnez	a5,121bc <__call_exitprocs+0xbc>
   121b0:	855a                	mv	a0,s6
   121b2:	9702                	jalr	a4
   121b4:	bfe1                	j	1218c <__call_exitprocs+0x8c>
   121b6:	00892423          	sw	s0,8(s2)
   121ba:	bf75                	j	12176 <__call_exitprocs+0x76>
   121bc:	852e                	mv	a0,a1
   121be:	9702                	jalr	a4
   121c0:	b7f1                	j	1218c <__call_exitprocs+0x8c>

00000000000121c2 <atexit>:
   121c2:	85aa                	mv	a1,a0
   121c4:	4681                	li	a3,0
   121c6:	4601                	li	a2,0
   121c8:	4501                	li	a0,0
   121ca:	5bb0606f          	j	18f84 <__register_exitproc>

00000000000121ce <__sflush_r>:
   121ce:	01059783          	lh	a5,16(a1)
   121d2:	7179                	add	sp,sp,-48
   121d4:	f022                	sd	s0,32(sp)
   121d6:	e44e                	sd	s3,8(sp)
   121d8:	f406                	sd	ra,40(sp)
   121da:	ec26                	sd	s1,24(sp)
   121dc:	e84a                	sd	s2,16(sp)
   121de:	0087f713          	and	a4,a5,8
   121e2:	842e                	mv	s0,a1
   121e4:	89aa                	mv	s3,a0
   121e6:	e369                	bnez	a4,122a8 <__sflush_r+0xda>
   121e8:	6705                	lui	a4,0x1
   121ea:	80070713          	add	a4,a4,-2048 # 800 <exit-0xf8e8>
   121ee:	4594                	lw	a3,8(a1)
   121f0:	8f5d                	or	a4,a4,a5
   121f2:	00e59823          	sh	a4,16(a1)
   121f6:	10d05463          	blez	a3,122fe <__sflush_r+0x130>
   121fa:	04843803          	ld	a6,72(s0)
   121fe:	08080d63          	beqz	a6,12298 <__sflush_r+0xca>
   12202:	83b1                	srl	a5,a5,0xc
   12204:	0009a483          	lw	s1,0(s3)
   12208:	8b85                	and	a5,a5,1
   1220a:	0009a023          	sw	zero,0(s3)
   1220e:	780c                	ld	a1,48(s0)
   12210:	efe5                	bnez	a5,12308 <__sflush_r+0x13a>
   12212:	4601                	li	a2,0
   12214:	4685                	li	a3,1
   12216:	854e                	mv	a0,s3
   12218:	9802                	jalr	a6
   1221a:	57fd                	li	a5,-1
   1221c:	862a                	mv	a2,a0
   1221e:	10f50863          	beq	a0,a5,1232e <__sflush_r+0x160>
   12222:	01041703          	lh	a4,16(s0)
   12226:	04843803          	ld	a6,72(s0)
   1222a:	780c                	ld	a1,48(s0)
   1222c:	8b11                	and	a4,a4,4
   1222e:	c719                	beqz	a4,1223c <__sflush_r+0x6e>
   12230:	4418                	lw	a4,8(s0)
   12232:	6c3c                	ld	a5,88(s0)
   12234:	8e19                	sub	a2,a2,a4
   12236:	c399                	beqz	a5,1223c <__sflush_r+0x6e>
   12238:	583c                	lw	a5,112(s0)
   1223a:	8e1d                	sub	a2,a2,a5
   1223c:	4681                	li	a3,0
   1223e:	854e                	mv	a0,s3
   12240:	9802                	jalr	a6
   12242:	57fd                	li	a5,-1
   12244:	0cf51463          	bne	a0,a5,1230c <__sflush_r+0x13e>
   12248:	0009a683          	lw	a3,0(s3)
   1224c:	47f5                	li	a5,29
   1224e:	08d7ea63          	bltu	a5,a3,122e2 <__sflush_r+0x114>
   12252:	dfc00737          	lui	a4,0xdfc00
   12256:	1779                	add	a4,a4,-2 # ffffffffdfbffffe <__BSS_END__+0xffffffffdfbe048e>
   12258:	40d75733          	sra	a4,a4,a3
   1225c:	8b05                	and	a4,a4,1
   1225e:	01041783          	lh	a5,16(s0)
   12262:	e351                	bnez	a4,122e6 <__sflush_r+0x118>
   12264:	6c10                	ld	a2,24(s0)
   12266:	777d                	lui	a4,0xfffff
   12268:	7ff70713          	add	a4,a4,2047 # fffffffffffff7ff <__BSS_END__+0xfffffffffffdfc8f>
   1226c:	8f7d                	and	a4,a4,a5
   1226e:	83b1                	srl	a5,a5,0xc
   12270:	00e41823          	sh	a4,16(s0)
   12274:	00042423          	sw	zero,8(s0)
   12278:	e010                	sd	a2,0(s0)
   1227a:	8b85                	and	a5,a5,1
   1227c:	e7f9                	bnez	a5,1234a <__sflush_r+0x17c>
   1227e:	6c2c                	ld	a1,88(s0)
   12280:	0099a023          	sw	s1,0(s3)
   12284:	c991                	beqz	a1,12298 <__sflush_r+0xca>
   12286:	07440793          	add	a5,s0,116
   1228a:	00f58563          	beq	a1,a5,12294 <__sflush_r+0xc6>
   1228e:	854e                	mv	a0,s3
   12290:	4da000ef          	jal	1276a <_free_r>
   12294:	04043c23          	sd	zero,88(s0)
   12298:	4501                	li	a0,0
   1229a:	70a2                	ld	ra,40(sp)
   1229c:	7402                	ld	s0,32(sp)
   1229e:	64e2                	ld	s1,24(sp)
   122a0:	6942                	ld	s2,16(sp)
   122a2:	69a2                	ld	s3,8(sp)
   122a4:	6145                	add	sp,sp,48
   122a6:	8082                	ret
   122a8:	0185b903          	ld	s2,24(a1)
   122ac:	fe0906e3          	beqz	s2,12298 <__sflush_r+0xca>
   122b0:	6184                	ld	s1,0(a1)
   122b2:	8b8d                	and	a5,a5,3
   122b4:	0125b023          	sd	s2,0(a1)
   122b8:	412484bb          	subw	s1,s1,s2
   122bc:	4701                	li	a4,0
   122be:	e391                	bnez	a5,122c2 <__sflush_r+0xf4>
   122c0:	5198                	lw	a4,32(a1)
   122c2:	c458                	sw	a4,12(s0)
   122c4:	00904663          	bgtz	s1,122d0 <__sflush_r+0x102>
   122c8:	bfc1                	j	12298 <__sflush_r+0xca>
   122ca:	992a                	add	s2,s2,a0
   122cc:	fc9056e3          	blez	s1,12298 <__sflush_r+0xca>
   122d0:	603c                	ld	a5,64(s0)
   122d2:	780c                	ld	a1,48(s0)
   122d4:	86a6                	mv	a3,s1
   122d6:	864a                	mv	a2,s2
   122d8:	854e                	mv	a0,s3
   122da:	9782                	jalr	a5
   122dc:	9c89                	subw	s1,s1,a0
   122de:	fea046e3          	bgtz	a0,122ca <__sflush_r+0xfc>
   122e2:	01041783          	lh	a5,16(s0)
   122e6:	0407e793          	or	a5,a5,64
   122ea:	70a2                	ld	ra,40(sp)
   122ec:	00f41823          	sh	a5,16(s0)
   122f0:	7402                	ld	s0,32(sp)
   122f2:	64e2                	ld	s1,24(sp)
   122f4:	6942                	ld	s2,16(sp)
   122f6:	69a2                	ld	s3,8(sp)
   122f8:	557d                	li	a0,-1
   122fa:	6145                	add	sp,sp,48
   122fc:	8082                	ret
   122fe:	59b4                	lw	a3,112(a1)
   12300:	eed04de3          	bgtz	a3,121fa <__sflush_r+0x2c>
   12304:	4501                	li	a0,0
   12306:	bf51                	j	1229a <__sflush_r+0xcc>
   12308:	6850                	ld	a2,144(s0)
   1230a:	b70d                	j	1222c <__sflush_r+0x5e>
   1230c:	01041783          	lh	a5,16(s0)
   12310:	6c14                	ld	a3,24(s0)
   12312:	777d                	lui	a4,0xfffff
   12314:	7ff70713          	add	a4,a4,2047 # fffffffffffff7ff <__BSS_END__+0xfffffffffffdfc8f>
   12318:	8f7d                	and	a4,a4,a5
   1231a:	83b1                	srl	a5,a5,0xc
   1231c:	00e41823          	sh	a4,16(s0)
   12320:	00042423          	sw	zero,8(s0)
   12324:	e014                	sd	a3,0(s0)
   12326:	8b85                	and	a5,a5,1
   12328:	dbb9                	beqz	a5,1227e <__sflush_r+0xb0>
   1232a:	e848                	sd	a0,144(s0)
   1232c:	bf89                	j	1227e <__sflush_r+0xb0>
   1232e:	0009a783          	lw	a5,0(s3)
   12332:	ee0788e3          	beqz	a5,12222 <__sflush_r+0x54>
   12336:	4775                	li	a4,29
   12338:	00e78563          	beq	a5,a4,12342 <__sflush_r+0x174>
   1233c:	4759                	li	a4,22
   1233e:	fae792e3          	bne	a5,a4,122e2 <__sflush_r+0x114>
   12342:	0099a023          	sw	s1,0(s3)
   12346:	4501                	li	a0,0
   12348:	bf89                	j	1229a <__sflush_r+0xcc>
   1234a:	fa95                	bnez	a3,1227e <__sflush_r+0xb0>
   1234c:	e848                	sd	a0,144(s0)
   1234e:	bf05                	j	1227e <__sflush_r+0xb0>

0000000000012350 <_fflush_r>:
   12350:	1101                	add	sp,sp,-32
   12352:	e822                	sd	s0,16(sp)
   12354:	ec06                	sd	ra,24(sp)
   12356:	842a                	mv	s0,a0
   12358:	c119                	beqz	a0,1235e <_fflush_r+0xe>
   1235a:	493c                	lw	a5,80(a0)
   1235c:	cb89                	beqz	a5,1236e <_fflush_r+0x1e>
   1235e:	01059783          	lh	a5,16(a1)
   12362:	ef89                	bnez	a5,1237c <_fflush_r+0x2c>
   12364:	60e2                	ld	ra,24(sp)
   12366:	6442                	ld	s0,16(sp)
   12368:	4501                	li	a0,0
   1236a:	6105                	add	sp,sp,32
   1236c:	8082                	ret
   1236e:	e42e                	sd	a1,8(sp)
   12370:	2c2000ef          	jal	12632 <__sinit>
   12374:	65a2                	ld	a1,8(sp)
   12376:	01059783          	lh	a5,16(a1)
   1237a:	d7ed                	beqz	a5,12364 <_fflush_r+0x14>
   1237c:	8522                	mv	a0,s0
   1237e:	6442                	ld	s0,16(sp)
   12380:	60e2                	ld	ra,24(sp)
   12382:	6105                	add	sp,sp,32
   12384:	b5a9                	j	121ce <__sflush_r>

0000000000012386 <fflush>:
   12386:	cd1d                	beqz	a0,123c4 <fflush+0x3e>
   12388:	1101                	add	sp,sp,-32
   1238a:	e822                	sd	s0,16(sp)
   1238c:	ec06                	sd	ra,24(sp)
   1238e:	842a                	mv	s0,a0
   12390:	7581b503          	ld	a0,1880(gp) # 1fac8 <_impure_ptr>
   12394:	c119                	beqz	a0,1239a <fflush+0x14>
   12396:	493c                	lw	a5,80(a0)
   12398:	cf91                	beqz	a5,123b4 <fflush+0x2e>
   1239a:	01041783          	lh	a5,16(s0)
   1239e:	e791                	bnez	a5,123aa <fflush+0x24>
   123a0:	60e2                	ld	ra,24(sp)
   123a2:	6442                	ld	s0,16(sp)
   123a4:	4501                	li	a0,0
   123a6:	6105                	add	sp,sp,32
   123a8:	8082                	ret
   123aa:	85a2                	mv	a1,s0
   123ac:	6442                	ld	s0,16(sp)
   123ae:	60e2                	ld	ra,24(sp)
   123b0:	6105                	add	sp,sp,32
   123b2:	bd31                	j	121ce <__sflush_r>
   123b4:	e42a                	sd	a0,8(sp)
   123b6:	27c000ef          	jal	12632 <__sinit>
   123ba:	01041783          	lh	a5,16(s0)
   123be:	6522                	ld	a0,8(sp)
   123c0:	d3e5                	beqz	a5,123a0 <fflush+0x1a>
   123c2:	b7e5                	j	123aa <fflush+0x24>
   123c4:	00000597          	auipc	a1,0x0
   123c8:	f8c58593          	add	a1,a1,-116 # 12350 <_fflush_r>
   123cc:	7481b503          	ld	a0,1864(gp) # 1fab8 <_global_impure_ptr>
   123d0:	a595                	j	12a34 <_fwalk_reent>

00000000000123d2 <__fp_lock>:
   123d2:	4501                	li	a0,0
   123d4:	8082                	ret

00000000000123d6 <_cleanup_r>:
   123d6:	00007597          	auipc	a1,0x7
   123da:	d5258593          	add	a1,a1,-686 # 19128 <_fclose_r>
   123de:	ad99                	j	12a34 <_fwalk_reent>

00000000000123e0 <__fp_unlock>:
   123e0:	4501                	li	a0,0
   123e2:	8082                	ret

00000000000123e4 <__sinit.part.0>:
   123e4:	7139                	add	sp,sp,-64
   123e6:	fc06                	sd	ra,56(sp)
   123e8:	f822                	sd	s0,48(sp)
   123ea:	f426                	sd	s1,40(sp)
   123ec:	f04a                	sd	s2,32(sp)
   123ee:	ec4e                	sd	s3,24(sp)
   123f0:	e852                	sd	s4,16(sp)
   123f2:	e456                	sd	s5,8(sp)
   123f4:	e05a                	sd	s6,0(sp)
   123f6:	6500                	ld	s0,8(a0)
   123f8:	00000717          	auipc	a4,0x0
   123fc:	fde70713          	add	a4,a4,-34 # 123d6 <_cleanup_r>
   12400:	ed38                	sd	a4,88(a0)
   12402:	53850793          	add	a5,a0,1336
   12406:	470d                	li	a4,3
   12408:	52e52423          	sw	a4,1320(a0)
   1240c:	52f53823          	sd	a5,1328(a0)
   12410:	52053023          	sd	zero,1312(a0)
   12414:	4791                	li	a5,4
   12416:	892a                	mv	s2,a0
   12418:	c81c                	sw	a5,16(s0)
   1241a:	4621                	li	a2,8
   1241c:	4581                	li	a1,0
   1241e:	00043023          	sd	zero,0(s0)
   12422:	00043423          	sd	zero,8(s0)
   12426:	0a042623          	sw	zero,172(s0)
   1242a:	00043c23          	sd	zero,24(s0)
   1242e:	02042023          	sw	zero,32(s0)
   12432:	02042423          	sw	zero,40(s0)
   12436:	0a440513          	add	a0,s0,164
   1243a:	e25fd0ef          	jal	1025e <memset>
   1243e:	01093483          	ld	s1,16(s2)
   12442:	00004b17          	auipc	s6,0x4
   12446:	e0eb0b13          	add	s6,s6,-498 # 16250 <__sread>
   1244a:	00004a97          	auipc	s5,0x4
   1244e:	e42a8a93          	add	s5,s5,-446 # 1628c <__swrite>
   12452:	00004a17          	auipc	s4,0x4
   12456:	e8ea0a13          	add	s4,s4,-370 # 162e0 <__sseek>
   1245a:	00004997          	auipc	s3,0x4
   1245e:	ed898993          	add	s3,s3,-296 # 16332 <__sclose>
   12462:	67c1                	lui	a5,0x10
   12464:	03643c23          	sd	s6,56(s0)
   12468:	05543023          	sd	s5,64(s0)
   1246c:	05443423          	sd	s4,72(s0)
   12470:	05343823          	sd	s3,80(s0)
   12474:	f800                	sd	s0,48(s0)
   12476:	07a5                	add	a5,a5,9 # 10009 <exit-0xdf>
   12478:	c89c                	sw	a5,16(s1)
   1247a:	4621                	li	a2,8
   1247c:	4581                	li	a1,0
   1247e:	0004b023          	sd	zero,0(s1)
   12482:	0004b423          	sd	zero,8(s1)
   12486:	0a04a623          	sw	zero,172(s1)
   1248a:	0004bc23          	sd	zero,24(s1)
   1248e:	0204a023          	sw	zero,32(s1)
   12492:	0204a423          	sw	zero,40(s1)
   12496:	0a448513          	add	a0,s1,164
   1249a:	dc5fd0ef          	jal	1025e <memset>
   1249e:	01893403          	ld	s0,24(s2)
   124a2:	000207b7          	lui	a5,0x20
   124a6:	0364bc23          	sd	s6,56(s1)
   124aa:	0554b023          	sd	s5,64(s1)
   124ae:	0544b423          	sd	s4,72(s1)
   124b2:	0534b823          	sd	s3,80(s1)
   124b6:	f884                	sd	s1,48(s1)
   124b8:	07c9                	add	a5,a5,18 # 20012 <__BSS_END__+0x4a2>
   124ba:	c81c                	sw	a5,16(s0)
   124bc:	00043023          	sd	zero,0(s0)
   124c0:	00043423          	sd	zero,8(s0)
   124c4:	0a042623          	sw	zero,172(s0)
   124c8:	00043c23          	sd	zero,24(s0)
   124cc:	02042023          	sw	zero,32(s0)
   124d0:	02042423          	sw	zero,40(s0)
   124d4:	0a440513          	add	a0,s0,164
   124d8:	4621                	li	a2,8
   124da:	4581                	li	a1,0
   124dc:	d83fd0ef          	jal	1025e <memset>
   124e0:	70e2                	ld	ra,56(sp)
   124e2:	03643c23          	sd	s6,56(s0)
   124e6:	05543023          	sd	s5,64(s0)
   124ea:	05443423          	sd	s4,72(s0)
   124ee:	05343823          	sd	s3,80(s0)
   124f2:	f800                	sd	s0,48(s0)
   124f4:	7442                	ld	s0,48(sp)
   124f6:	4785                	li	a5,1
   124f8:	04f92823          	sw	a5,80(s2)
   124fc:	74a2                	ld	s1,40(sp)
   124fe:	7902                	ld	s2,32(sp)
   12500:	69e2                	ld	s3,24(sp)
   12502:	6a42                	ld	s4,16(sp)
   12504:	6aa2                	ld	s5,8(sp)
   12506:	6b02                	ld	s6,0(sp)
   12508:	6121                	add	sp,sp,64
   1250a:	8082                	ret

000000000001250c <__sfmoreglue>:
   1250c:	1101                	add	sp,sp,-32
   1250e:	e426                	sd	s1,8(sp)
   12510:	0b000793          	li	a5,176
   12514:	fff5849b          	addw	s1,a1,-1
   12518:	02f484b3          	mul	s1,s1,a5
   1251c:	e04a                	sd	s2,0(sp)
   1251e:	892e                	mv	s2,a1
   12520:	e822                	sd	s0,16(sp)
   12522:	ec06                	sd	ra,24(sp)
   12524:	0c848593          	add	a1,s1,200
   12528:	089020ef          	jal	14db0 <_malloc_r>
   1252c:	842a                	mv	s0,a0
   1252e:	cd01                	beqz	a0,12546 <__sfmoreglue+0x3a>
   12530:	0561                	add	a0,a0,24
   12532:	00043023          	sd	zero,0(s0)
   12536:	01242423          	sw	s2,8(s0)
   1253a:	e808                	sd	a0,16(s0)
   1253c:	0b048613          	add	a2,s1,176
   12540:	4581                	li	a1,0
   12542:	d1dfd0ef          	jal	1025e <memset>
   12546:	60e2                	ld	ra,24(sp)
   12548:	8522                	mv	a0,s0
   1254a:	6442                	ld	s0,16(sp)
   1254c:	64a2                	ld	s1,8(sp)
   1254e:	6902                	ld	s2,0(sp)
   12550:	6105                	add	sp,sp,32
   12552:	8082                	ret

0000000000012554 <__sfp>:
   12554:	7179                	add	sp,sp,-48
   12556:	ec26                	sd	s1,24(sp)
   12558:	7481b483          	ld	s1,1864(gp) # 1fab8 <_global_impure_ptr>
   1255c:	48bc                	lw	a5,80(s1)
   1255e:	e84a                	sd	s2,16(sp)
   12560:	f406                	sd	ra,40(sp)
   12562:	f022                	sd	s0,32(sp)
   12564:	e44e                	sd	s3,8(sp)
   12566:	892a                	mv	s2,a0
   12568:	cfbd                	beqz	a5,125e6 <__sfp+0x92>
   1256a:	52048493          	add	s1,s1,1312
   1256e:	0b000993          	li	s3,176
   12572:	4498                	lw	a4,8(s1)
   12574:	6880                	ld	s0,16(s1)
   12576:	06e05463          	blez	a4,125de <__sfp+0x8a>
   1257a:	1702                	sll	a4,a4,0x20
   1257c:	9301                	srl	a4,a4,0x20
   1257e:	03370733          	mul	a4,a4,s3
   12582:	9722                	add	a4,a4,s0
   12584:	a029                	j	1258e <__sfp+0x3a>
   12586:	0b040413          	add	s0,s0,176
   1258a:	04e40a63          	beq	s0,a4,125de <__sfp+0x8a>
   1258e:	01041783          	lh	a5,16(s0)
   12592:	fbf5                	bnez	a5,12586 <__sfp+0x32>
   12594:	77c1                	lui	a5,0xffff0
   12596:	0785                	add	a5,a5,1 # ffffffffffff0001 <__BSS_END__+0xfffffffffffd0491>
   12598:	c81c                	sw	a5,16(s0)
   1259a:	0a042623          	sw	zero,172(s0)
   1259e:	00043023          	sd	zero,0(s0)
   125a2:	00043423          	sd	zero,8(s0)
   125a6:	00043c23          	sd	zero,24(s0)
   125aa:	02042023          	sw	zero,32(s0)
   125ae:	02042423          	sw	zero,40(s0)
   125b2:	4621                	li	a2,8
   125b4:	4581                	li	a1,0
   125b6:	0a440513          	add	a0,s0,164
   125ba:	ca5fd0ef          	jal	1025e <memset>
   125be:	04043c23          	sd	zero,88(s0)
   125c2:	06042023          	sw	zero,96(s0)
   125c6:	06043c23          	sd	zero,120(s0)
   125ca:	08042023          	sw	zero,128(s0)
   125ce:	70a2                	ld	ra,40(sp)
   125d0:	8522                	mv	a0,s0
   125d2:	7402                	ld	s0,32(sp)
   125d4:	64e2                	ld	s1,24(sp)
   125d6:	6942                	ld	s2,16(sp)
   125d8:	69a2                	ld	s3,8(sp)
   125da:	6145                	add	sp,sp,48
   125dc:	8082                	ret
   125de:	6080                	ld	s0,0(s1)
   125e0:	c419                	beqz	s0,125ee <__sfp+0x9a>
   125e2:	84a2                	mv	s1,s0
   125e4:	b779                	j	12572 <__sfp+0x1e>
   125e6:	8526                	mv	a0,s1
   125e8:	dfdff0ef          	jal	123e4 <__sinit.part.0>
   125ec:	bfbd                	j	1256a <__sfp+0x16>
   125ee:	2d800593          	li	a1,728
   125f2:	854a                	mv	a0,s2
   125f4:	7bc020ef          	jal	14db0 <_malloc_r>
   125f8:	842a                	mv	s0,a0
   125fa:	cd19                	beqz	a0,12618 <__sfp+0xc4>
   125fc:	0561                	add	a0,a0,24
   125fe:	4791                	li	a5,4
   12600:	00043023          	sd	zero,0(s0)
   12604:	c41c                	sw	a5,8(s0)
   12606:	e808                	sd	a0,16(s0)
   12608:	2c000613          	li	a2,704
   1260c:	4581                	li	a1,0
   1260e:	c51fd0ef          	jal	1025e <memset>
   12612:	e080                	sd	s0,0(s1)
   12614:	84a2                	mv	s1,s0
   12616:	bfb1                	j	12572 <__sfp+0x1e>
   12618:	0004b023          	sd	zero,0(s1)
   1261c:	47b1                	li	a5,12
   1261e:	00f92023          	sw	a5,0(s2)
   12622:	b775                	j	125ce <__sfp+0x7a>

0000000000012624 <_cleanup>:
   12624:	00007597          	auipc	a1,0x7
   12628:	b0458593          	add	a1,a1,-1276 # 19128 <_fclose_r>
   1262c:	7481b503          	ld	a0,1864(gp) # 1fab8 <_global_impure_ptr>
   12630:	a111                	j	12a34 <_fwalk_reent>

0000000000012632 <__sinit>:
   12632:	493c                	lw	a5,80(a0)
   12634:	c391                	beqz	a5,12638 <__sinit+0x6>
   12636:	8082                	ret
   12638:	b375                	j	123e4 <__sinit.part.0>

000000000001263a <__sfp_lock_acquire>:
   1263a:	8082                	ret

000000000001263c <__sfp_lock_release>:
   1263c:	8082                	ret

000000000001263e <__sinit_lock_acquire>:
   1263e:	8082                	ret

0000000000012640 <__sinit_lock_release>:
   12640:	8082                	ret

0000000000012642 <__fp_lock_all>:
   12642:	00000597          	auipc	a1,0x0
   12646:	d9058593          	add	a1,a1,-624 # 123d2 <__fp_lock>
   1264a:	7581b503          	ld	a0,1880(gp) # 1fac8 <_impure_ptr>
   1264e:	a6ad                	j	129b8 <_fwalk>

0000000000012650 <__fp_unlock_all>:
   12650:	00000597          	auipc	a1,0x0
   12654:	d9058593          	add	a1,a1,-624 # 123e0 <__fp_unlock>
   12658:	7581b503          	ld	a0,1880(gp) # 1fac8 <_impure_ptr>
   1265c:	aeb1                	j	129b8 <_fwalk>

000000000001265e <__libc_fini_array>:
   1265e:	1101                	add	sp,sp,-32
   12660:	e822                	sd	s0,16(sp)
   12662:	0000c797          	auipc	a5,0xc
   12666:	31678793          	add	a5,a5,790 # 1e978 <__do_global_dtors_aux_fini_array_entry>
   1266a:	0000c417          	auipc	s0,0xc
   1266e:	31640413          	add	s0,s0,790 # 1e980 <impure_data>
   12672:	8c1d                	sub	s0,s0,a5
   12674:	e426                	sd	s1,8(sp)
   12676:	ec06                	sd	ra,24(sp)
   12678:	40345493          	sra	s1,s0,0x3
   1267c:	c881                	beqz	s1,1268c <__libc_fini_array+0x2e>
   1267e:	1461                	add	s0,s0,-8
   12680:	943e                	add	s0,s0,a5
   12682:	601c                	ld	a5,0(s0)
   12684:	14fd                	add	s1,s1,-1
   12686:	1461                	add	s0,s0,-8
   12688:	9782                	jalr	a5
   1268a:	fce5                	bnez	s1,12682 <__libc_fini_array+0x24>
   1268c:	60e2                	ld	ra,24(sp)
   1268e:	6442                	ld	s0,16(sp)
   12690:	64a2                	ld	s1,8(sp)
   12692:	6105                	add	sp,sp,32
   12694:	8082                	ret

0000000000012696 <_malloc_trim_r>:
   12696:	7179                	add	sp,sp,-48
   12698:	f022                	sd	s0,32(sp)
   1269a:	ec26                	sd	s1,24(sp)
   1269c:	e84a                	sd	s2,16(sp)
   1269e:	e44e                	sd	s3,8(sp)
   126a0:	e052                	sd	s4,0(sp)
   126a2:	89ae                	mv	s3,a1
   126a4:	f406                	sd	ra,40(sp)
   126a6:	0000da17          	auipc	s4,0xd
   126aa:	a22a0a13          	add	s4,s4,-1502 # 1f0c8 <__malloc_av_>
   126ae:	892a                	mv	s2,a0
   126b0:	58d020ef          	jal	1543c <__malloc_lock>
   126b4:	010a3703          	ld	a4,16(s4)
   126b8:	6785                	lui	a5,0x1
   126ba:	fdf78413          	add	s0,a5,-33 # fdf <exit-0xf109>
   126be:	6704                	ld	s1,8(a4)
   126c0:	98f1                	and	s1,s1,-4
   126c2:	9426                	add	s0,s0,s1
   126c4:	41340433          	sub	s0,s0,s3
   126c8:	8031                	srl	s0,s0,0xc
   126ca:	147d                	add	s0,s0,-1
   126cc:	0432                	sll	s0,s0,0xc
   126ce:	00f44b63          	blt	s0,a5,126e4 <_malloc_trim_r+0x4e>
   126d2:	4581                	li	a1,0
   126d4:	854a                	mv	a0,s2
   126d6:	2bf030ef          	jal	16194 <_sbrk_r>
   126da:	010a3783          	ld	a5,16(s4)
   126de:	97a6                	add	a5,a5,s1
   126e0:	00f50e63          	beq	a0,a5,126fc <_malloc_trim_r+0x66>
   126e4:	854a                	mv	a0,s2
   126e6:	559020ef          	jal	1543e <__malloc_unlock>
   126ea:	70a2                	ld	ra,40(sp)
   126ec:	7402                	ld	s0,32(sp)
   126ee:	64e2                	ld	s1,24(sp)
   126f0:	6942                	ld	s2,16(sp)
   126f2:	69a2                	ld	s3,8(sp)
   126f4:	6a02                	ld	s4,0(sp)
   126f6:	4501                	li	a0,0
   126f8:	6145                	add	sp,sp,48
   126fa:	8082                	ret
   126fc:	408005b3          	neg	a1,s0
   12700:	854a                	mv	a0,s2
   12702:	293030ef          	jal	16194 <_sbrk_r>
   12706:	57fd                	li	a5,-1
   12708:	02f50b63          	beq	a0,a5,1273e <_malloc_trim_r+0xa8>
   1270c:	0000d717          	auipc	a4,0xd
   12710:	43c70713          	add	a4,a4,1084 # 1fb48 <__malloc_current_mallinfo>
   12714:	431c                	lw	a5,0(a4)
   12716:	010a3683          	ld	a3,16(s4)
   1271a:	8c81                	sub	s1,s1,s0
   1271c:	0014e493          	or	s1,s1,1
   12720:	9f81                	subw	a5,a5,s0
   12722:	854a                	mv	a0,s2
   12724:	e684                	sd	s1,8(a3)
   12726:	c31c                	sw	a5,0(a4)
   12728:	517020ef          	jal	1543e <__malloc_unlock>
   1272c:	70a2                	ld	ra,40(sp)
   1272e:	7402                	ld	s0,32(sp)
   12730:	64e2                	ld	s1,24(sp)
   12732:	6942                	ld	s2,16(sp)
   12734:	69a2                	ld	s3,8(sp)
   12736:	6a02                	ld	s4,0(sp)
   12738:	4505                	li	a0,1
   1273a:	6145                	add	sp,sp,48
   1273c:	8082                	ret
   1273e:	4581                	li	a1,0
   12740:	854a                	mv	a0,s2
   12742:	253030ef          	jal	16194 <_sbrk_r>
   12746:	010a3703          	ld	a4,16(s4)
   1274a:	46fd                	li	a3,31
   1274c:	40e507b3          	sub	a5,a0,a4
   12750:	f8f6dae3          	bge	a3,a5,126e4 <_malloc_trim_r+0x4e>
   12754:	7601b683          	ld	a3,1888(gp) # 1fad0 <__malloc_sbrk_base>
   12758:	8d15                	sub	a0,a0,a3
   1275a:	0017e793          	or	a5,a5,1
   1275e:	0000d697          	auipc	a3,0xd
   12762:	3ea6a523          	sw	a0,1002(a3) # 1fb48 <__malloc_current_mallinfo>
   12766:	e71c                	sd	a5,8(a4)
   12768:	bfb5                	j	126e4 <_malloc_trim_r+0x4e>

000000000001276a <_free_r>:
   1276a:	12058463          	beqz	a1,12892 <_free_r+0x128>
   1276e:	1101                	add	sp,sp,-32
   12770:	e822                	sd	s0,16(sp)
   12772:	e426                	sd	s1,8(sp)
   12774:	842e                	mv	s0,a1
   12776:	84aa                	mv	s1,a0
   12778:	ec06                	sd	ra,24(sp)
   1277a:	4c3020ef          	jal	1543c <__malloc_lock>
   1277e:	ff843583          	ld	a1,-8(s0)
   12782:	ff040713          	add	a4,s0,-16
   12786:	0000d517          	auipc	a0,0xd
   1278a:	94250513          	add	a0,a0,-1726 # 1f0c8 <__malloc_av_>
   1278e:	ffe5f793          	and	a5,a1,-2
   12792:	00f70633          	add	a2,a4,a5
   12796:	6614                	ld	a3,8(a2)
   12798:	01053803          	ld	a6,16(a0)
   1279c:	9af1                	and	a3,a3,-4
   1279e:	12c80c63          	beq	a6,a2,128d6 <_free_r+0x16c>
   127a2:	e614                	sd	a3,8(a2)
   127a4:	8985                	and	a1,a1,1
   127a6:	00d60833          	add	a6,a2,a3
   127aa:	e1c1                	bnez	a1,1282a <_free_r+0xc0>
   127ac:	ff043303          	ld	t1,-16(s0)
   127b0:	00883583          	ld	a1,8(a6)
   127b4:	0000d897          	auipc	a7,0xd
   127b8:	92488893          	add	a7,a7,-1756 # 1f0d8 <__malloc_av_+0x10>
   127bc:	40670733          	sub	a4,a4,t1
   127c0:	01073803          	ld	a6,16(a4)
   127c4:	979a                	add	a5,a5,t1
   127c6:	8985                	and	a1,a1,1
   127c8:	0f180b63          	beq	a6,a7,128be <_free_r+0x154>
   127cc:	01873303          	ld	t1,24(a4)
   127d0:	00683c23          	sd	t1,24(a6)
   127d4:	01033823          	sd	a6,16(t1)
   127d8:	12058863          	beqz	a1,12908 <_free_r+0x19e>
   127dc:	0017e693          	or	a3,a5,1
   127e0:	e714                	sd	a3,8(a4)
   127e2:	e21c                	sd	a5,0(a2)
   127e4:	1ff00693          	li	a3,511
   127e8:	04f6ee63          	bltu	a3,a5,12844 <_free_r+0xda>
   127ec:	838d                	srl	a5,a5,0x3
   127ee:	0017869b          	addw	a3,a5,1
   127f2:	0016969b          	sllw	a3,a3,0x1
   127f6:	068e                	sll	a3,a3,0x3
   127f8:	00853803          	ld	a6,8(a0)
   127fc:	96aa                	add	a3,a3,a0
   127fe:	628c                	ld	a1,0(a3)
   12800:	4027d61b          	sraw	a2,a5,0x2
   12804:	4785                	li	a5,1
   12806:	00c797b3          	sll	a5,a5,a2
   1280a:	0107e7b3          	or	a5,a5,a6
   1280e:	ff068613          	add	a2,a3,-16
   12812:	ef10                	sd	a2,24(a4)
   12814:	eb0c                	sd	a1,16(a4)
   12816:	e51c                	sd	a5,8(a0)
   12818:	e298                	sd	a4,0(a3)
   1281a:	ed98                	sd	a4,24(a1)
   1281c:	6442                	ld	s0,16(sp)
   1281e:	60e2                	ld	ra,24(sp)
   12820:	8526                	mv	a0,s1
   12822:	64a2                	ld	s1,8(sp)
   12824:	6105                	add	sp,sp,32
   12826:	4190206f          	j	1543e <__malloc_unlock>
   1282a:	00883583          	ld	a1,8(a6)
   1282e:	8985                	and	a1,a1,1
   12830:	c1b5                	beqz	a1,12894 <_free_r+0x12a>
   12832:	0017e693          	or	a3,a5,1
   12836:	fed43c23          	sd	a3,-8(s0)
   1283a:	e21c                	sd	a5,0(a2)
   1283c:	1ff00693          	li	a3,511
   12840:	faf6f6e3          	bgeu	a3,a5,127ec <_free_r+0x82>
   12844:	0097d693          	srl	a3,a5,0x9
   12848:	4611                	li	a2,4
   1284a:	0cd66163          	bltu	a2,a3,1290c <_free_r+0x1a2>
   1284e:	0067d693          	srl	a3,a5,0x6
   12852:	0396859b          	addw	a1,a3,57
   12856:	0015959b          	sllw	a1,a1,0x1
   1285a:	0386861b          	addw	a2,a3,56
   1285e:	058e                	sll	a1,a1,0x3
   12860:	95aa                	add	a1,a1,a0
   12862:	6194                	ld	a3,0(a1)
   12864:	15c1                	add	a1,a1,-16
   12866:	00d59663          	bne	a1,a3,12872 <_free_r+0x108>
   1286a:	a0f5                	j	12956 <_free_r+0x1ec>
   1286c:	6a94                	ld	a3,16(a3)
   1286e:	00d58663          	beq	a1,a3,1287a <_free_r+0x110>
   12872:	6690                	ld	a2,8(a3)
   12874:	9a71                	and	a2,a2,-4
   12876:	fec7ebe3          	bltu	a5,a2,1286c <_free_r+0x102>
   1287a:	6e8c                	ld	a1,24(a3)
   1287c:	ef0c                	sd	a1,24(a4)
   1287e:	eb14                	sd	a3,16(a4)
   12880:	6442                	ld	s0,16(sp)
   12882:	60e2                	ld	ra,24(sp)
   12884:	e998                	sd	a4,16(a1)
   12886:	8526                	mv	a0,s1
   12888:	64a2                	ld	s1,8(sp)
   1288a:	ee98                	sd	a4,24(a3)
   1288c:	6105                	add	sp,sp,32
   1288e:	3b10206f          	j	1543e <__malloc_unlock>
   12892:	8082                	ret
   12894:	97b6                	add	a5,a5,a3
   12896:	0000d897          	auipc	a7,0xd
   1289a:	84288893          	add	a7,a7,-1982 # 1f0d8 <__malloc_av_+0x10>
   1289e:	6a14                	ld	a3,16(a2)
   128a0:	09168f63          	beq	a3,a7,1293e <_free_r+0x1d4>
   128a4:	01863803          	ld	a6,24(a2)
   128a8:	0017e593          	or	a1,a5,1
   128ac:	00f70633          	add	a2,a4,a5
   128b0:	0106bc23          	sd	a6,24(a3)
   128b4:	00d83823          	sd	a3,16(a6)
   128b8:	e70c                	sd	a1,8(a4)
   128ba:	e21c                	sd	a5,0(a2)
   128bc:	b725                	j	127e4 <_free_r+0x7a>
   128be:	e9e5                	bnez	a1,129ae <_free_r+0x244>
   128c0:	6a0c                	ld	a1,16(a2)
   128c2:	6e10                	ld	a2,24(a2)
   128c4:	96be                	add	a3,a3,a5
   128c6:	0016e793          	or	a5,a3,1
   128ca:	ed90                	sd	a2,24(a1)
   128cc:	ea0c                	sd	a1,16(a2)
   128ce:	e71c                	sd	a5,8(a4)
   128d0:	9736                	add	a4,a4,a3
   128d2:	e314                	sd	a3,0(a4)
   128d4:	b7a1                	j	1281c <_free_r+0xb2>
   128d6:	8985                	and	a1,a1,1
   128d8:	96be                	add	a3,a3,a5
   128da:	e989                	bnez	a1,128ec <_free_r+0x182>
   128dc:	ff043583          	ld	a1,-16(s0)
   128e0:	8f0d                	sub	a4,a4,a1
   128e2:	6f1c                	ld	a5,24(a4)
   128e4:	6b10                	ld	a2,16(a4)
   128e6:	96ae                	add	a3,a3,a1
   128e8:	ee1c                	sd	a5,24(a2)
   128ea:	eb90                	sd	a2,16(a5)
   128ec:	0016e793          	or	a5,a3,1
   128f0:	e71c                	sd	a5,8(a4)
   128f2:	e918                	sd	a4,16(a0)
   128f4:	7681b783          	ld	a5,1896(gp) # 1fad8 <__malloc_trim_threshold>
   128f8:	f2f6e2e3          	bltu	a3,a5,1281c <_free_r+0xb2>
   128fc:	7801b583          	ld	a1,1920(gp) # 1faf0 <__malloc_top_pad>
   12900:	8526                	mv	a0,s1
   12902:	d95ff0ef          	jal	12696 <_malloc_trim_r>
   12906:	bf19                	j	1281c <_free_r+0xb2>
   12908:	97b6                	add	a5,a5,a3
   1290a:	bf51                	j	1289e <_free_r+0x134>
   1290c:	4651                	li	a2,20
   1290e:	02d67063          	bgeu	a2,a3,1292e <_free_r+0x1c4>
   12912:	05400613          	li	a2,84
   12916:	04d66b63          	bltu	a2,a3,1296c <_free_r+0x202>
   1291a:	00c7d693          	srl	a3,a5,0xc
   1291e:	06f6859b          	addw	a1,a3,111
   12922:	0015959b          	sllw	a1,a1,0x1
   12926:	06e6861b          	addw	a2,a3,110
   1292a:	058e                	sll	a1,a1,0x3
   1292c:	bf15                	j	12860 <_free_r+0xf6>
   1292e:	05c6859b          	addw	a1,a3,92
   12932:	0015959b          	sllw	a1,a1,0x1
   12936:	05b6861b          	addw	a2,a3,91
   1293a:	058e                	sll	a1,a1,0x3
   1293c:	b715                	j	12860 <_free_r+0xf6>
   1293e:	f518                	sd	a4,40(a0)
   12940:	f118                	sd	a4,32(a0)
   12942:	0017e693          	or	a3,a5,1
   12946:	01173c23          	sd	a7,24(a4)
   1294a:	01173823          	sd	a7,16(a4)
   1294e:	e714                	sd	a3,8(a4)
   12950:	973e                	add	a4,a4,a5
   12952:	e31c                	sd	a5,0(a4)
   12954:	b5e1                	j	1281c <_free_r+0xb2>
   12956:	00853803          	ld	a6,8(a0)
   1295a:	4026561b          	sraw	a2,a2,0x2
   1295e:	4785                	li	a5,1
   12960:	00c797b3          	sll	a5,a5,a2
   12964:	0107e7b3          	or	a5,a5,a6
   12968:	e51c                	sd	a5,8(a0)
   1296a:	bf09                	j	1287c <_free_r+0x112>
   1296c:	15400613          	li	a2,340
   12970:	00d66c63          	bltu	a2,a3,12988 <_free_r+0x21e>
   12974:	00f7d693          	srl	a3,a5,0xf
   12978:	0786859b          	addw	a1,a3,120
   1297c:	0015959b          	sllw	a1,a1,0x1
   12980:	0776861b          	addw	a2,a3,119
   12984:	058e                	sll	a1,a1,0x3
   12986:	bde9                	j	12860 <_free_r+0xf6>
   12988:	55400613          	li	a2,1364
   1298c:	00d66c63          	bltu	a2,a3,129a4 <_free_r+0x23a>
   12990:	0127d693          	srl	a3,a5,0x12
   12994:	07d6859b          	addw	a1,a3,125
   12998:	0015959b          	sllw	a1,a1,0x1
   1299c:	07c6861b          	addw	a2,a3,124
   129a0:	058e                	sll	a1,a1,0x3
   129a2:	bd7d                	j	12860 <_free_r+0xf6>
   129a4:	7f000593          	li	a1,2032
   129a8:	07e00613          	li	a2,126
   129ac:	bd55                	j	12860 <_free_r+0xf6>
   129ae:	0017e693          	or	a3,a5,1
   129b2:	e714                	sd	a3,8(a4)
   129b4:	e21c                	sd	a5,0(a2)
   129b6:	b59d                	j	1281c <_free_r+0xb2>

00000000000129b8 <_fwalk>:
   129b8:	715d                	add	sp,sp,-80
   129ba:	f84a                	sd	s2,48(sp)
   129bc:	f44e                	sd	s3,40(sp)
   129be:	f052                	sd	s4,32(sp)
   129c0:	ec56                	sd	s5,24(sp)
   129c2:	e85a                	sd	s6,16(sp)
   129c4:	e45e                	sd	s7,8(sp)
   129c6:	e486                	sd	ra,72(sp)
   129c8:	e0a2                	sd	s0,64(sp)
   129ca:	fc26                	sd	s1,56(sp)
   129cc:	8aae                	mv	s5,a1
   129ce:	52050993          	add	s3,a0,1312
   129d2:	4901                	li	s2,0
   129d4:	0b000b13          	li	s6,176
   129d8:	4b85                	li	s7,1
   129da:	5a7d                	li	s4,-1
   129dc:	0089a483          	lw	s1,8(s3)
   129e0:	0109b403          	ld	s0,16(s3)
   129e4:	02905863          	blez	s1,12a14 <_fwalk+0x5c>
   129e8:	1482                	sll	s1,s1,0x20
   129ea:	9081                	srl	s1,s1,0x20
   129ec:	036484b3          	mul	s1,s1,s6
   129f0:	94a2                	add	s1,s1,s0
   129f2:	01045783          	lhu	a5,16(s0)
   129f6:	00fbfb63          	bgeu	s7,a5,12a0c <_fwalk+0x54>
   129fa:	01241783          	lh	a5,18(s0)
   129fe:	8522                	mv	a0,s0
   12a00:	01478663          	beq	a5,s4,12a0c <_fwalk+0x54>
   12a04:	9a82                	jalr	s5
   12a06:	01256933          	or	s2,a0,s2
   12a0a:	2901                	sext.w	s2,s2
   12a0c:	0b040413          	add	s0,s0,176
   12a10:	fe8491e3          	bne	s1,s0,129f2 <_fwalk+0x3a>
   12a14:	0009b983          	ld	s3,0(s3)
   12a18:	fc0992e3          	bnez	s3,129dc <_fwalk+0x24>
   12a1c:	60a6                	ld	ra,72(sp)
   12a1e:	6406                	ld	s0,64(sp)
   12a20:	74e2                	ld	s1,56(sp)
   12a22:	79a2                	ld	s3,40(sp)
   12a24:	7a02                	ld	s4,32(sp)
   12a26:	6ae2                	ld	s5,24(sp)
   12a28:	6b42                	ld	s6,16(sp)
   12a2a:	6ba2                	ld	s7,8(sp)
   12a2c:	854a                	mv	a0,s2
   12a2e:	7942                	ld	s2,48(sp)
   12a30:	6161                	add	sp,sp,80
   12a32:	8082                	ret

0000000000012a34 <_fwalk_reent>:
   12a34:	715d                	add	sp,sp,-80
   12a36:	f84a                	sd	s2,48(sp)
   12a38:	f44e                	sd	s3,40(sp)
   12a3a:	f052                	sd	s4,32(sp)
   12a3c:	ec56                	sd	s5,24(sp)
   12a3e:	e85a                	sd	s6,16(sp)
   12a40:	e45e                	sd	s7,8(sp)
   12a42:	e062                	sd	s8,0(sp)
   12a44:	e486                	sd	ra,72(sp)
   12a46:	e0a2                	sd	s0,64(sp)
   12a48:	fc26                	sd	s1,56(sp)
   12a4a:	89aa                	mv	s3,a0
   12a4c:	8b2e                	mv	s6,a1
   12a4e:	52050a13          	add	s4,a0,1312
   12a52:	4901                	li	s2,0
   12a54:	0b000b93          	li	s7,176
   12a58:	4c05                	li	s8,1
   12a5a:	5afd                	li	s5,-1
   12a5c:	008a2483          	lw	s1,8(s4)
   12a60:	010a3403          	ld	s0,16(s4)
   12a64:	02905963          	blez	s1,12a96 <_fwalk_reent+0x62>
   12a68:	1482                	sll	s1,s1,0x20
   12a6a:	9081                	srl	s1,s1,0x20
   12a6c:	037484b3          	mul	s1,s1,s7
   12a70:	94a2                	add	s1,s1,s0
   12a72:	01045783          	lhu	a5,16(s0)
   12a76:	00fc7c63          	bgeu	s8,a5,12a8e <_fwalk_reent+0x5a>
   12a7a:	01241783          	lh	a5,18(s0)
   12a7e:	85a2                	mv	a1,s0
   12a80:	854e                	mv	a0,s3
   12a82:	01578663          	beq	a5,s5,12a8e <_fwalk_reent+0x5a>
   12a86:	9b02                	jalr	s6
   12a88:	01256933          	or	s2,a0,s2
   12a8c:	2901                	sext.w	s2,s2
   12a8e:	0b040413          	add	s0,s0,176
   12a92:	fe8490e3          	bne	s1,s0,12a72 <_fwalk_reent+0x3e>
   12a96:	000a3a03          	ld	s4,0(s4)
   12a9a:	fc0a11e3          	bnez	s4,12a5c <_fwalk_reent+0x28>
   12a9e:	60a6                	ld	ra,72(sp)
   12aa0:	6406                	ld	s0,64(sp)
   12aa2:	74e2                	ld	s1,56(sp)
   12aa4:	79a2                	ld	s3,40(sp)
   12aa6:	7a02                	ld	s4,32(sp)
   12aa8:	6ae2                	ld	s5,24(sp)
   12aaa:	6b42                	ld	s6,16(sp)
   12aac:	6ba2                	ld	s7,8(sp)
   12aae:	6c02                	ld	s8,0(sp)
   12ab0:	854a                	mv	a0,s2
   12ab2:	7942                	ld	s2,48(sp)
   12ab4:	6161                	add	sp,sp,80
   12ab6:	8082                	ret

0000000000012ab8 <eshdn1>:
   12ab8:	00450693          	add	a3,a0,4
   12abc:	4701                	li	a4,0
   12abe:	0569                	add	a0,a0,26
   12ac0:	7861                	lui	a6,0xffff8
   12ac2:	0006d783          	lhu	a5,0(a3)
   12ac6:	0017f613          	and	a2,a5,1
   12aca:	c219                	beqz	a2,12ad0 <eshdn1+0x18>
   12acc:	00176713          	or	a4,a4,1
   12ad0:	00277613          	and	a2,a4,2
   12ad4:	8385                	srl	a5,a5,0x1
   12ad6:	0017171b          	sllw	a4,a4,0x1
   12ada:	0107e5b3          	or	a1,a5,a6
   12ade:	c601                	beqz	a2,12ae6 <eshdn1+0x2e>
   12ae0:	03059793          	sll	a5,a1,0x30
   12ae4:	93c1                	srl	a5,a5,0x30
   12ae6:	00f69023          	sh	a5,0(a3)
   12aea:	1742                	sll	a4,a4,0x30
   12aec:	0689                	add	a3,a3,2
   12aee:	9341                	srl	a4,a4,0x30
   12af0:	fcd519e3          	bne	a0,a3,12ac2 <eshdn1+0xa>
   12af4:	8082                	ret

0000000000012af6 <eshup1>:
   12af6:	01850693          	add	a3,a0,24
   12afa:	4701                	li	a4,0
   12afc:	0509                	add	a0,a0,2
   12afe:	0006d783          	lhu	a5,0(a3)
   12b02:	00f7d613          	srl	a2,a5,0xf
   12b06:	0017979b          	sllw	a5,a5,0x1
   12b0a:	c219                	beqz	a2,12b10 <eshup1+0x1a>
   12b0c:	00176713          	or	a4,a4,1
   12b10:	00277613          	and	a2,a4,2
   12b14:	17c2                	sll	a5,a5,0x30
   12b16:	0017171b          	sllw	a4,a4,0x1
   12b1a:	93c1                	srl	a5,a5,0x30
   12b1c:	c219                	beqz	a2,12b22 <eshup1+0x2c>
   12b1e:	0017e793          	or	a5,a5,1
   12b22:	00f69023          	sh	a5,0(a3)
   12b26:	1742                	sll	a4,a4,0x30
   12b28:	16f9                	add	a3,a3,-2
   12b2a:	9341                	srl	a4,a4,0x30
   12b2c:	fcd519e3          	bne	a0,a3,12afe <eshup1+0x8>
   12b30:	8082                	ret

0000000000012b32 <m16m>:
   12b32:	1101                	add	sp,sp,-32
   12b34:	6e41                	lui	t3,0x10
   12b36:	00011b23          	sh	zero,22(sp)
   12b3a:	00011c23          	sh	zero,24(sp)
   12b3e:	05e1                	add	a1,a1,24
   12b40:	083c                	add	a5,sp,24
   12b42:	00410813          	add	a6,sp,4
   12b46:	1e7d                	add	t3,t3,-1 # ffff <exit-0xe9>
   12b48:	0005d703          	lhu	a4,0(a1)
   12b4c:	17f9                	add	a5,a5,-2
   12b4e:	15f9                	add	a1,a1,-2
   12b50:	c705                	beqz	a4,12b78 <m16m+0x46>
   12b52:	02a70733          	mul	a4,a4,a0
   12b56:	0027d883          	lhu	a7,2(a5)
   12b5a:	0007d303          	lhu	t1,0(a5)
   12b5e:	01c776b3          	and	a3,a4,t3
   12b62:	96c6                	add	a3,a3,a7
   12b64:	8341                	srl	a4,a4,0x10
   12b66:	0106d893          	srl	a7,a3,0x10
   12b6a:	971a                	add	a4,a4,t1
   12b6c:	9746                	add	a4,a4,a7
   12b6e:	00e79023          	sh	a4,0(a5)
   12b72:	00d79123          	sh	a3,2(a5)
   12b76:	8341                	srl	a4,a4,0x10
   12b78:	fee79f23          	sh	a4,-2(a5)
   12b7c:	fd0796e3          	bne	a5,a6,12b48 <m16m+0x16>
   12b80:	0611                	add	a2,a2,4
   12b82:	01a10693          	add	a3,sp,26
   12b86:	0007d703          	lhu	a4,0(a5)
   12b8a:	0789                	add	a5,a5,2
   12b8c:	0609                	add	a2,a2,2
   12b8e:	fee61f23          	sh	a4,-2(a2)
   12b92:	fef69ae3          	bne	a3,a5,12b86 <m16m+0x54>
   12b96:	6105                	add	sp,sp,32
   12b98:	8082                	ret

0000000000012b9a <emovo.constprop.0>:
   12b9a:	00055703          	lhu	a4,0(a0)
   12b9e:	00255783          	lhu	a5,2(a0)
   12ba2:	c319                	beqz	a4,12ba8 <emovo.constprop.0+0xe>
   12ba4:	6721                	lui	a4,0x8
   12ba6:	8fd9                	or	a5,a5,a4
   12ba8:	00f59923          	sh	a5,18(a1)
   12bac:	00255703          	lhu	a4,2(a0)
   12bb0:	67a1                	lui	a5,0x8
   12bb2:	17fd                	add	a5,a5,-1 # 7fff <exit-0x80e9>
   12bb4:	00f70f63          	beq	a4,a5,12bd2 <emovo.constprop.0+0x38>
   12bb8:	00650793          	add	a5,a0,6
   12bbc:	05c1                	add	a1,a1,16
   12bbe:	0561                	add	a0,a0,24
   12bc0:	0007d703          	lhu	a4,0(a5)
   12bc4:	0789                	add	a5,a5,2
   12bc6:	15f9                	add	a1,a1,-2
   12bc8:	00e59123          	sh	a4,2(a1)
   12bcc:	fea79ae3          	bne	a5,a0,12bc0 <emovo.constprop.0+0x26>
   12bd0:	8082                	ret
   12bd2:	00650793          	add	a5,a0,6
   12bd6:	0569                	add	a0,a0,26
   12bd8:	0007d703          	lhu	a4,0(a5)
   12bdc:	0789                	add	a5,a5,2
   12bde:	e31d                	bnez	a4,12c04 <emovo.constprop.0+0x6a>
   12be0:	fef51ce3          	bne	a0,a5,12bd8 <emovo.constprop.0+0x3e>
   12be4:	01258713          	add	a4,a1,18
   12be8:	87ae                	mv	a5,a1
   12bea:	0789                	add	a5,a5,2
   12bec:	fe079f23          	sh	zero,-2(a5)
   12bf0:	fee79de3          	bne	a5,a4,12bea <emovo.constprop.0+0x50>
   12bf4:	0125d783          	lhu	a5,18(a1)
   12bf8:	6721                	lui	a4,0x8
   12bfa:	177d                	add	a4,a4,-1 # 7fff <exit-0x80e9>
   12bfc:	8fd9                	or	a5,a5,a4
   12bfe:	00f59923          	sh	a5,18(a1)
   12c02:	8082                	ret
   12c04:	01058713          	add	a4,a1,16
   12c08:	87ae                	mv	a5,a1
   12c0a:	0789                	add	a5,a5,2
   12c0c:	fe079f23          	sh	zero,-2(a5)
   12c10:	fee79de3          	bne	a5,a4,12c0a <emovo.constprop.0+0x70>
   12c14:	77f1                	lui	a5,0xffffc
   12c16:	00f59823          	sh	a5,16(a1)
   12c1a:	77e1                	lui	a5,0xffff8
   12c1c:	fff7c793          	not	a5,a5
   12c20:	00f59923          	sh	a5,18(a1)
   12c24:	8082                	ret

0000000000012c26 <enormlz>:
   12c26:	00455783          	lhu	a5,4(a0)
   12c2a:	1101                	add	sp,sp,-32
   12c2c:	e426                	sd	s1,8(sp)
   12c2e:	ec06                	sd	ra,24(sp)
   12c30:	e822                	sd	s0,16(sp)
   12c32:	e04a                	sd	s2,0(sp)
   12c34:	84aa                	mv	s1,a0
   12c36:	efd1                	bnez	a5,12cd2 <enormlz+0xac>
   12c38:	00655783          	lhu	a5,6(a0)
   12c3c:	4401                	li	s0,0
   12c3e:	00f7d713          	srl	a4,a5,0xf
   12c42:	e349                	bnez	a4,12cc4 <enormlz+0x9e>
   12c44:	01850693          	add	a3,a0,24
   12c48:	0a000613          	li	a2,160
   12c4c:	e395                	bnez	a5,12c70 <enormlz+0x4a>
   12c4e:	00448793          	add	a5,s1,4
   12c52:	0027d703          	lhu	a4,2(a5) # ffffffffffff8002 <__BSS_END__+0xfffffffffffd8492>
   12c56:	0789                	add	a5,a5,2
   12c58:	fee79f23          	sh	a4,-2(a5)
   12c5c:	fed79be3          	bne	a5,a3,12c52 <enormlz+0x2c>
   12c60:	00049c23          	sh	zero,24(s1)
   12c64:	2441                	addw	s0,s0,16
   12c66:	04c40f63          	beq	s0,a2,12cc4 <enormlz+0x9e>
   12c6a:	0064d783          	lhu	a5,6(s1)
   12c6e:	d3e5                	beqz	a5,12c4e <enormlz+0x28>
   12c70:	0ff00713          	li	a4,255
   12c74:	02f76b63          	bltu	a4,a5,12caa <enormlz+0x84>
   12c78:	01848813          	add	a6,s1,24
   12c7c:	00248593          	add	a1,s1,2
   12c80:	0ff00513          	li	a0,255
   12c84:	4781                	li	a5,0
   12c86:	8742                	mv	a4,a6
   12c88:	00075683          	lhu	a3,0(a4)
   12c8c:	1779                	add	a4,a4,-2
   12c8e:	0086961b          	sllw	a2,a3,0x8
   12c92:	8fd1                	or	a5,a5,a2
   12c94:	00f71123          	sh	a5,2(a4)
   12c98:	0086d793          	srl	a5,a3,0x8
   12c9c:	feb716e3          	bne	a4,a1,12c88 <enormlz+0x62>
   12ca0:	0064d783          	lhu	a5,6(s1)
   12ca4:	2421                	addw	s0,s0,8
   12ca6:	fcf57fe3          	bgeu	a0,a5,12c84 <enormlz+0x5e>
   12caa:	0a000913          	li	s2,160
   12cae:	a801                	j	12cbe <enormlz+0x98>
   12cb0:	2405                	addw	s0,s0,1
   12cb2:	e45ff0ef          	jal	12af6 <eshup1>
   12cb6:	00894763          	blt	s2,s0,12cc4 <enormlz+0x9e>
   12cba:	0064d783          	lhu	a5,6(s1)
   12cbe:	83bd                	srl	a5,a5,0xf
   12cc0:	8526                	mv	a0,s1
   12cc2:	d7fd                	beqz	a5,12cb0 <enormlz+0x8a>
   12cc4:	60e2                	ld	ra,24(sp)
   12cc6:	8522                	mv	a0,s0
   12cc8:	6442                	ld	s0,16(sp)
   12cca:	64a2                	ld	s1,8(sp)
   12ccc:	6902                	ld	s2,0(sp)
   12cce:	6105                	add	sp,sp,32
   12cd0:	8082                	ret
   12cd2:	0ff00713          	li	a4,255
   12cd6:	4401                	li	s0,0
   12cd8:	02f76563          	bltu	a4,a5,12d02 <enormlz+0xdc>
   12cdc:	f6f00913          	li	s2,-145
   12ce0:	a801                	j	12cf0 <enormlz+0xca>
   12ce2:	347d                	addw	s0,s0,-1
   12ce4:	dd5ff0ef          	jal	12ab8 <eshdn1>
   12ce8:	fd240ee3          	beq	s0,s2,12cc4 <enormlz+0x9e>
   12cec:	0044d783          	lhu	a5,4(s1)
   12cf0:	8526                	mv	a0,s1
   12cf2:	fbe5                	bnez	a5,12ce2 <enormlz+0xbc>
   12cf4:	60e2                	ld	ra,24(sp)
   12cf6:	8522                	mv	a0,s0
   12cf8:	6442                	ld	s0,16(sp)
   12cfa:	64a2                	ld	s1,8(sp)
   12cfc:	6902                	ld	s2,0(sp)
   12cfe:	6105                	add	sp,sp,32
   12d00:	8082                	ret
   12d02:	00450713          	add	a4,a0,4
   12d06:	01a50593          	add	a1,a0,26
   12d0a:	4781                	li	a5,0
   12d0c:	00075683          	lhu	a3,0(a4)
   12d10:	0709                	add	a4,a4,2
   12d12:	0086d61b          	srlw	a2,a3,0x8
   12d16:	8fd1                	or	a5,a5,a2
   12d18:	0086969b          	sllw	a3,a3,0x8
   12d1c:	fef71f23          	sh	a5,-2(a4)
   12d20:	03069793          	sll	a5,a3,0x30
   12d24:	93c1                	srl	a5,a5,0x30
   12d26:	feb713e3          	bne	a4,a1,12d0c <enormlz+0xe6>
   12d2a:	0044d783          	lhu	a5,4(s1)
   12d2e:	5461                	li	s0,-8
   12d30:	b775                	j	12cdc <enormlz+0xb6>

0000000000012d32 <eshift.part.0>:
   12d32:	7179                	add	sp,sp,-48
   12d34:	f022                	sd	s0,32(sp)
   12d36:	ec26                	sd	s1,24(sp)
   12d38:	f406                	sd	ra,40(sp)
   12d3a:	e84a                	sd	s2,16(sp)
   12d3c:	e44e                	sd	s3,8(sp)
   12d3e:	84ae                	mv	s1,a1
   12d40:	842a                	mv	s0,a0
   12d42:	0605cb63          	bltz	a1,12db8 <eshift.part.0+0x86>
   12d46:	47bd                	li	a5,15
   12d48:	862e                	mv	a2,a1
   12d4a:	0511                	add	a0,a0,4
   12d4c:	01840693          	add	a3,s0,24
   12d50:	45bd                	li	a1,15
   12d52:	0297d063          	bge	a5,s1,12d72 <eshift.part.0+0x40>
   12d56:	87aa                	mv	a5,a0
   12d58:	0027d703          	lhu	a4,2(a5)
   12d5c:	0789                	add	a5,a5,2
   12d5e:	fee79f23          	sh	a4,-2(a5)
   12d62:	fef69be3          	bne	a3,a5,12d58 <eshift.part.0+0x26>
   12d66:	00041c23          	sh	zero,24(s0)
   12d6a:	3641                	addw	a2,a2,-16
   12d6c:	fec5c5e3          	blt	a1,a2,12d56 <eshift.part.0+0x24>
   12d70:	88bd                	and	s1,s1,15
   12d72:	479d                	li	a5,7
   12d74:	0297d463          	bge	a5,s1,12d9c <eshift.part.0+0x6a>
   12d78:	01840713          	add	a4,s0,24
   12d7c:	00240593          	add	a1,s0,2
   12d80:	4781                	li	a5,0
   12d82:	00075683          	lhu	a3,0(a4)
   12d86:	1779                	add	a4,a4,-2
   12d88:	0086961b          	sllw	a2,a3,0x8
   12d8c:	8fd1                	or	a5,a5,a2
   12d8e:	00f71123          	sh	a5,2(a4)
   12d92:	0086d793          	srl	a5,a3,0x8
   12d96:	feb716e3          	bne	a4,a1,12d82 <eshift.part.0+0x50>
   12d9a:	34e1                	addw	s1,s1,-8
   12d9c:	c491                	beqz	s1,12da8 <eshift.part.0+0x76>
   12d9e:	34fd                	addw	s1,s1,-1
   12da0:	8522                	mv	a0,s0
   12da2:	d55ff0ef          	jal	12af6 <eshup1>
   12da6:	fce5                	bnez	s1,12d9e <eshift.part.0+0x6c>
   12da8:	4501                	li	a0,0
   12daa:	70a2                	ld	ra,40(sp)
   12dac:	7402                	ld	s0,32(sp)
   12dae:	64e2                	ld	s1,24(sp)
   12db0:	6942                	ld	s2,16(sp)
   12db2:	69a2                	ld	s3,8(sp)
   12db4:	6145                	add	sp,sp,48
   12db6:	8082                	ret
   12db8:	57c5                	li	a5,-15
   12dba:	40b0093b          	negw	s2,a1
   12dbe:	4981                	li	s3,0
   12dc0:	01850593          	add	a1,a0,24
   12dc4:	00450693          	add	a3,a0,4
   12dc8:	463d                	li	a2,15
   12dca:	0af4d463          	bge	s1,a5,12e72 <eshift.part.0+0x140>
   12dce:	01845703          	lhu	a4,24(s0)
   12dd2:	87ae                	mv	a5,a1
   12dd4:	00e9e9b3          	or	s3,s3,a4
   12dd8:	ffe7d703          	lhu	a4,-2(a5)
   12ddc:	17f9                	add	a5,a5,-2
   12dde:	00e79123          	sh	a4,2(a5)
   12de2:	fed79be3          	bne	a5,a3,12dd8 <eshift.part.0+0xa6>
   12de6:	00041223          	sh	zero,4(s0)
   12dea:	3941                	addw	s2,s2,-16
   12dec:	ff2641e3          	blt	a2,s2,12dce <eshift.part.0+0x9c>
   12df0:	5941                	li	s2,-16
   12df2:	5745                	li	a4,-15
   12df4:	4099093b          	subw	s2,s2,s1
   12df8:	4781                	li	a5,0
   12dfa:	06e4c763          	blt	s1,a4,12e68 <eshift.part.0+0x136>
   12dfe:	00f9093b          	addw	s2,s2,a5
   12e02:	479d                	li	a5,7
   12e04:	0327d963          	bge	a5,s2,12e36 <eshift.part.0+0x104>
   12e08:	01844783          	lbu	a5,24(s0)
   12e0c:	01a40593          	add	a1,s0,26
   12e10:	00f9e9b3          	or	s3,s3,a5
   12e14:	4781                	li	a5,0
   12e16:	0006d703          	lhu	a4,0(a3)
   12e1a:	0689                	add	a3,a3,2
   12e1c:	0087561b          	srlw	a2,a4,0x8
   12e20:	8fd1                	or	a5,a5,a2
   12e22:	0087171b          	sllw	a4,a4,0x8
   12e26:	fef69f23          	sh	a5,-2(a3)
   12e2a:	03071793          	sll	a5,a4,0x30
   12e2e:	93c1                	srl	a5,a5,0x30
   12e30:	feb693e3          	bne	a3,a1,12e16 <eshift.part.0+0xe4>
   12e34:	3961                	addw	s2,s2,-8
   12e36:	01303533          	snez	a0,s3
   12e3a:	f60908e3          	beqz	s2,12daa <eshift.part.0+0x78>
   12e3e:	01845783          	lhu	a5,24(s0)
   12e42:	397d                	addw	s2,s2,-1
   12e44:	8522                	mv	a0,s0
   12e46:	8b85                	and	a5,a5,1
   12e48:	00f9e9b3          	or	s3,s3,a5
   12e4c:	c6dff0ef          	jal	12ab8 <eshdn1>
   12e50:	fe0917e3          	bnez	s2,12e3e <eshift.part.0+0x10c>
   12e54:	70a2                	ld	ra,40(sp)
   12e56:	7402                	ld	s0,32(sp)
   12e58:	2981                	sext.w	s3,s3
   12e5a:	64e2                	ld	s1,24(sp)
   12e5c:	6942                	ld	s2,16(sp)
   12e5e:	01303533          	snez	a0,s3
   12e62:	69a2                	ld	s3,8(sp)
   12e64:	6145                	add	sp,sp,48
   12e66:	8082                	ret
   12e68:	ff097793          	and	a5,s2,-16
   12e6c:	40f007bb          	negw	a5,a5
   12e70:	b779                	j	12dfe <eshift.part.0+0xcc>
   12e72:	57e5                	li	a5,-7
   12e74:	f8f4cae3          	blt	s1,a5,12e08 <eshift.part.0+0xd6>
   12e78:	b7d9                	j	12e3e <eshift.part.0+0x10c>

0000000000012e7a <emovi>:
   12e7a:	01255783          	lhu	a5,18(a0)
   12e7e:	66a1                	lui	a3,0x8
   12e80:	16fd                	add	a3,a3,-1 # 7fff <exit-0x80e9>
   12e82:	00f7d79b          	srlw	a5,a5,0xf
   12e86:	40f007bb          	negw	a5,a5
   12e8a:	00f59023          	sh	a5,0(a1)
   12e8e:	01255703          	lhu	a4,18(a0)
   12e92:	01050793          	add	a5,a0,16
   12e96:	8f75                	and	a4,a4,a3
   12e98:	00e59123          	sh	a4,2(a1)
   12e9c:	0007061b          	sext.w	a2,a4
   12ea0:	02d70263          	beq	a4,a3,12ec4 <emovi+0x4a>
   12ea4:	00658713          	add	a4,a1,6
   12ea8:	00059223          	sh	zero,4(a1)
   12eac:	1579                	add	a0,a0,-2
   12eae:	0007d683          	lhu	a3,0(a5)
   12eb2:	17f9                	add	a5,a5,-2
   12eb4:	0709                	add	a4,a4,2
   12eb6:	fed71f23          	sh	a3,-2(a4)
   12eba:	fea79ae3          	bne	a5,a0,12eae <emovi+0x34>
   12ebe:	00059c23          	sh	zero,24(a1)
   12ec2:	8082                	ret
   12ec4:	01255703          	lhu	a4,18(a0)
   12ec8:	8f71                	and	a4,a4,a2
   12eca:	00c71b63          	bne	a4,a2,12ee0 <emovi+0x66>
   12ece:	01250613          	add	a2,a0,18
   12ed2:	872a                	mv	a4,a0
   12ed4:	00075683          	lhu	a3,0(a4)
   12ed8:	0709                	add	a4,a4,2
   12eda:	ee81                	bnez	a3,12ef2 <emovi+0x78>
   12edc:	fec71ce3          	bne	a4,a2,12ed4 <emovi+0x5a>
   12ee0:	00458793          	add	a5,a1,4
   12ee4:	05e9                	add	a1,a1,26
   12ee6:	0789                	add	a5,a5,2
   12ee8:	fe079f23          	sh	zero,-2(a5)
   12eec:	feb79de3          	bne	a5,a1,12ee6 <emovi+0x6c>
   12ef0:	8082                	ret
   12ef2:	00658713          	add	a4,a1,6
   12ef6:	00059223          	sh	zero,4(a1)
   12efa:	1571                	add	a0,a0,-4
   12efc:	0007d683          	lhu	a3,0(a5)
   12f00:	17f9                	add	a5,a5,-2
   12f02:	0709                	add	a4,a4,2
   12f04:	fed71f23          	sh	a3,-2(a4)
   12f08:	fef51ae3          	bne	a0,a5,12efc <emovi+0x82>
   12f0c:	8082                	ret

0000000000012f0e <ecmp>:
   12f0e:	01255783          	lhu	a5,18(a0)
   12f12:	715d                	add	sp,sp,-80
   12f14:	e0a2                	sd	s0,64(sp)
   12f16:	fff7c793          	not	a5,a5
   12f1a:	e486                	sd	ra,72(sp)
   12f1c:	03179713          	sll	a4,a5,0x31
   12f20:	842e                	mv	s0,a1
   12f22:	eb11                	bnez	a4,12f36 <ecmp+0x28>
   12f24:	01250693          	add	a3,a0,18
   12f28:	87aa                	mv	a5,a0
   12f2a:	0007d703          	lhu	a4,0(a5)
   12f2e:	0789                	add	a5,a5,2
   12f30:	eb25                	bnez	a4,12fa0 <ecmp+0x92>
   12f32:	fed79ce3          	bne	a5,a3,12f2a <ecmp+0x1c>
   12f36:	01245783          	lhu	a5,18(s0)
   12f3a:	fff7c793          	not	a5,a5
   12f3e:	03179713          	sll	a4,a5,0x31
   12f42:	c331                	beqz	a4,12f86 <ecmp+0x78>
   12f44:	858a                	mv	a1,sp
   12f46:	f35ff0ef          	jal	12e7a <emovi>
   12f4a:	100c                	add	a1,sp,32
   12f4c:	8522                	mv	a0,s0
   12f4e:	f2dff0ef          	jal	12e7a <emovi>
   12f52:	00015583          	lhu	a1,0(sp)
   12f56:	02015783          	lhu	a5,32(sp)
   12f5a:	04b78863          	beq	a5,a1,12faa <ecmp+0x9c>
   12f5e:	00210793          	add	a5,sp,2
   12f62:	02210713          	add	a4,sp,34
   12f66:	0830                	add	a2,sp,24
   12f68:	0007d683          	lhu	a3,0(a5)
   12f6c:	0789                	add	a5,a5,2
   12f6e:	eab5                	bnez	a3,12fe2 <ecmp+0xd4>
   12f70:	00075683          	lhu	a3,0(a4)
   12f74:	0709                	add	a4,a4,2
   12f76:	e6b5                	bnez	a3,12fe2 <ecmp+0xd4>
   12f78:	fef618e3          	bne	a2,a5,12f68 <ecmp+0x5a>
   12f7c:	4501                	li	a0,0
   12f7e:	60a6                	ld	ra,72(sp)
   12f80:	6406                	ld	s0,64(sp)
   12f82:	6161                	add	sp,sp,80
   12f84:	8082                	ret
   12f86:	87a2                	mv	a5,s0
   12f88:	0007d703          	lhu	a4,0(a5)
   12f8c:	01240693          	add	a3,s0,18
   12f90:	0789                	add	a5,a5,2
   12f92:	e719                	bnez	a4,12fa0 <ecmp+0x92>
   12f94:	fad788e3          	beq	a5,a3,12f44 <ecmp+0x36>
   12f98:	0007d703          	lhu	a4,0(a5)
   12f9c:	0789                	add	a5,a5,2
   12f9e:	db7d                	beqz	a4,12f94 <ecmp+0x86>
   12fa0:	60a6                	ld	ra,72(sp)
   12fa2:	6406                	ld	s0,64(sp)
   12fa4:	5579                	li	a0,-2
   12fa6:	6161                	add	sp,sp,80
   12fa8:	8082                	ret
   12faa:	557d                	li	a0,-1
   12fac:	c1a9                	beqz	a1,12fee <ecmp+0xe0>
   12fae:	878a                	mv	a5,sp
   12fb0:	0007d603          	lhu	a2,0(a5)
   12fb4:	02015683          	lhu	a3,32(sp)
   12fb8:	1018                	add	a4,sp,32
   12fba:	082c                	add	a1,sp,24
   12fbc:	0789                	add	a5,a5,2
   12fbe:	0709                	add	a4,a4,2
   12fc0:	00d61c63          	bne	a2,a3,12fd8 <ecmp+0xca>
   12fc4:	fab78ce3          	beq	a5,a1,12f7c <ecmp+0x6e>
   12fc8:	0007d603          	lhu	a2,0(a5)
   12fcc:	00075683          	lhu	a3,0(a4)
   12fd0:	0789                	add	a5,a5,2
   12fd2:	0709                	add	a4,a4,2
   12fd4:	fed608e3          	beq	a2,a3,12fc4 <ecmp+0xb6>
   12fd8:	fac6e3e3          	bltu	a3,a2,12f7e <ecmp+0x70>
   12fdc:	40a0053b          	negw	a0,a0
   12fe0:	bf79                	j	12f7e <ecmp+0x70>
   12fe2:	e981                	bnez	a1,12ff2 <ecmp+0xe4>
   12fe4:	60a6                	ld	ra,72(sp)
   12fe6:	6406                	ld	s0,64(sp)
   12fe8:	4505                	li	a0,1
   12fea:	6161                	add	sp,sp,80
   12fec:	8082                	ret
   12fee:	4505                	li	a0,1
   12ff0:	bf7d                	j	12fae <ecmp+0xa0>
   12ff2:	557d                	li	a0,-1
   12ff4:	b769                	j	12f7e <ecmp+0x70>

0000000000012ff6 <emdnorm>:
   12ff6:	7139                	add	sp,sp,-64
   12ff8:	f822                	sd	s0,48(sp)
   12ffa:	f426                	sd	s1,40(sp)
   12ffc:	f04a                	sd	s2,32(sp)
   12ffe:	ec4e                	sd	s3,24(sp)
   13000:	e852                	sd	s4,16(sp)
   13002:	e456                	sd	s5,8(sp)
   13004:	8936                	mv	s2,a3
   13006:	843e                	mv	s0,a5
   13008:	fc06                	sd	ra,56(sp)
   1300a:	84aa                	mv	s1,a0
   1300c:	89ae                	mv	s3,a1
   1300e:	8a32                	mv	s4,a2
   13010:	8aba                	mv	s5,a4
   13012:	c15ff0ef          	jal	12c26 <enormlz>
   13016:	09000793          	li	a5,144
   1301a:	40a90933          	sub	s2,s2,a0
   1301e:	12a7d863          	bge	a5,a0,1314e <emdnorm+0x158>
   13022:	67a1                	lui	a5,0x8
   13024:	17f9                	add	a5,a5,-2 # 7ffe <exit-0x80ea>
   13026:	2327dd63          	bge	a5,s2,13260 <emdnorm+0x26a>
   1302a:	1a0a8c63          	beqz	s5,131e2 <emdnorm+0x1ec>
   1302e:	00442a83          	lw	s5,4(s0)
   13032:	401c                	lw	a5,0(s0)
   13034:	20fa8363          	beq	s5,a5,1323a <emdnorm+0x244>
   13038:	01a40713          	add	a4,s0,26
   1303c:	03440793          	add	a5,s0,52
   13040:	0709                	add	a4,a4,2
   13042:	fe071f23          	sh	zero,-2(a4)
   13046:	fee79de3          	bne	a5,a4,13040 <emdnorm+0x4a>
   1304a:	03800793          	li	a5,56
   1304e:	2afa8f63          	beq	s5,a5,1330c <emdnorm+0x316>
   13052:	1557d663          	bge	a5,s5,1319e <emdnorm+0x1a8>
   13056:	04000793          	li	a5,64
   1305a:	20fa8c63          	beq	s5,a5,13272 <emdnorm+0x27c>
   1305e:	07100793          	li	a5,113
   13062:	2cfa9d63          	bne	s5,a5,1333c <emdnorm+0x346>
   13066:	400087b7          	lui	a5,0x40008
   1306a:	46a9                	li	a3,10
   1306c:	7761                	lui	a4,0xffff8
   1306e:	17fd                	add	a5,a5,-1 # 40007fff <__BSS_END__+0x3ffe848f>
   13070:	c414                	sw	a3,8(s0)
   13072:	c85c                	sw	a5,20(s0)
   13074:	00e41c23          	sh	a4,24(s0)
   13078:	c454                	sw	a3,12(s0)
   1307a:	02e41723          	sh	a4,46(s0)
   1307e:	01542023          	sw	s5,0(s0)
   13082:	1b205263          	blez	s2,13226 <emdnorm+0x230>
   13086:	0144d603          	lhu	a2,20(s1)
   1308a:	01448593          	add	a1,s1,20
   1308e:	47ad                	li	a5,11
   13090:	1646                	sll	a2,a2,0x31
   13092:	9245                	srl	a2,a2,0x31
   13094:	4731                	li	a4,12
   13096:	9f1d                	subw	a4,a4,a5
   13098:	1702                	sll	a4,a4,0x20
   1309a:	9301                	srl	a4,a4,0x20
   1309c:	973e                	add	a4,a4,a5
   1309e:	0706                	sll	a4,a4,0x1
   130a0:	0786                	sll	a5,a5,0x1
   130a2:	00248693          	add	a3,s1,2
   130a6:	97a6                	add	a5,a5,s1
   130a8:	9736                	add	a4,a4,a3
   130aa:	0007d683          	lhu	a3,0(a5)
   130ae:	c299                	beqz	a3,130b4 <emdnorm+0xbe>
   130b0:	00166613          	or	a2,a2,1
   130b4:	00079023          	sh	zero,0(a5)
   130b8:	0789                	add	a5,a5,2
   130ba:	fef718e3          	bne	a4,a5,130aa <emdnorm+0xb4>
   130be:	0005d703          	lhu	a4,0(a1)
   130c2:	01445683          	lhu	a3,20(s0)
   130c6:	fff6c693          	not	a3,a3
   130ca:	8f75                	and	a4,a4,a3
   130cc:	00e59023          	sh	a4,0(a1)
   130d0:	01645783          	lhu	a5,22(s0)
   130d4:	00c7f733          	and	a4,a5,a2
   130d8:	c721                	beqz	a4,13120 <emdnorm+0x12a>
   130da:	00c79d63          	bne	a5,a2,130f4 <emdnorm+0xfe>
   130de:	22099463          	bnez	s3,13306 <emdnorm+0x310>
   130e2:	445c                	lw	a5,12(s0)
   130e4:	01845703          	lhu	a4,24(s0)
   130e8:	0786                	sll	a5,a5,0x1
   130ea:	97a6                	add	a5,a5,s1
   130ec:	0007d783          	lhu	a5,0(a5)
   130f0:	8ff9                	and	a5,a5,a4
   130f2:	c79d                	beqz	a5,13120 <emdnorm+0x12a>
   130f4:	03240793          	add	a5,s0,50
   130f8:	01848613          	add	a2,s1,24
   130fc:	00248513          	add	a0,s1,2
   13100:	4581                	li	a1,0
   13102:	0007d703          	lhu	a4,0(a5)
   13106:	00065683          	lhu	a3,0(a2)
   1310a:	1679                	add	a2,a2,-2
   1310c:	17f9                	add	a5,a5,-2
   1310e:	9736                	add	a4,a4,a3
   13110:	972e                	add	a4,a4,a1
   13112:	01075593          	srl	a1,a4,0x10
   13116:	00e61123          	sh	a4,2(a2)
   1311a:	8985                	and	a1,a1,1
   1311c:	fec513e3          	bne	a0,a2,13102 <emdnorm+0x10c>
   13120:	1b205a63          	blez	s2,132d4 <emdnorm+0x2de>
   13124:	0044d783          	lhu	a5,4(s1)
   13128:	18079b63          	bnez	a5,132be <emdnorm+0x2c8>
   1312c:	67a1                	lui	a5,0x8
   1312e:	00049c23          	sh	zero,24(s1)
   13132:	17f9                	add	a5,a5,-2 # 7ffe <exit-0x80ea>
   13134:	0b27c963          	blt	a5,s2,131e6 <emdnorm+0x1f0>
   13138:	01249123          	sh	s2,2(s1)
   1313c:	70e2                	ld	ra,56(sp)
   1313e:	7442                	ld	s0,48(sp)
   13140:	74a2                	ld	s1,40(sp)
   13142:	7902                	ld	s2,32(sp)
   13144:	69e2                	ld	s3,24(sp)
   13146:	6a42                	ld	s4,16(sp)
   13148:	6aa2                	ld	s5,8(sp)
   1314a:	6121                	add	sp,sp,64
   1314c:	8082                	ret
   1314e:	02094b63          	bltz	s2,13184 <emdnorm+0x18e>
   13152:	fc0a8de3          	beqz	s5,1312c <emdnorm+0x136>
   13156:	00442a83          	lw	s5,4(s0)
   1315a:	401c                	lw	a5,0(s0)
   1315c:	ecfa9ee3          	bne	s5,a5,13038 <emdnorm+0x42>
   13160:	23204263          	bgtz	s2,13384 <emdnorm+0x38e>
   13164:	09000713          	li	a4,144
   13168:	22e79063          	bne	a5,a4,13388 <emdnorm+0x392>
   1316c:	440c                	lw	a1,8(s0)
   1316e:	01445683          	lhu	a3,20(s0)
   13172:	09000a93          	li	s5,144
   13176:	0586                	sll	a1,a1,0x1
   13178:	95a6                	add	a1,a1,s1
   1317a:	0005d703          	lhu	a4,0(a1)
   1317e:	00d77633          	and	a2,a4,a3
   13182:	b791                	j	130c6 <emdnorm+0xd0>
   13184:	f7000793          	li	a5,-144
   13188:	10f95c63          	bge	s2,a5,132a0 <emdnorm+0x2aa>
   1318c:	00248793          	add	a5,s1,2
   13190:	04e9                	add	s1,s1,26
   13192:	0789                	add	a5,a5,2
   13194:	fe079f23          	sh	zero,-2(a5)
   13198:	fe979de3          	bne	a5,s1,13192 <emdnorm+0x19c>
   1319c:	b745                	j	1313c <emdnorm+0x146>
   1319e:	47e1                	li	a5,24
   131a0:	06fa8163          	beq	s5,a5,13202 <emdnorm+0x20c>
   131a4:	03500793          	li	a5,53
   131a8:	18fa9a63          	bne	s5,a5,1333c <emdnorm+0x346>
   131ac:	6785                	lui	a5,0x1
   131ae:	04000737          	lui	a4,0x4000
   131b2:	4699                	li	a3,6
   131b4:	80078793          	add	a5,a5,-2048 # 800 <exit-0xf8e8>
   131b8:	7ff70713          	add	a4,a4,2047 # 40007ff <__BSS_END__+0x3fe0c8f>
   131bc:	c414                	sw	a3,8(s0)
   131be:	c858                	sw	a4,20(s0)
   131c0:	00f41c23          	sh	a5,24(s0)
   131c4:	c454                	sw	a3,12(s0)
   131c6:	02f41323          	sh	a5,38(s0)
   131ca:	01542023          	sw	s5,0(s0)
   131ce:	05205c63          	blez	s2,13226 <emdnorm+0x230>
   131d2:	00c4d603          	lhu	a2,12(s1)
   131d6:	00c48593          	add	a1,s1,12
   131da:	479d                	li	a5,7
   131dc:	7ff67613          	and	a2,a2,2047
   131e0:	bd55                	j	13094 <emdnorm+0x9e>
   131e2:	00049c23          	sh	zero,24(s1)
   131e6:	77e1                	lui	a5,0xffff8
   131e8:	fff7c793          	not	a5,a5
   131ec:	00f49123          	sh	a5,2(s1)
   131f0:	00448793          	add	a5,s1,4
   131f4:	04e1                	add	s1,s1,24
   131f6:	00079023          	sh	zero,0(a5) # ffffffffffff8000 <__BSS_END__+0xfffffffffffd8490>
   131fa:	0789                	add	a5,a5,2
   131fc:	fe979de3          	bne	a5,s1,131f6 <emdnorm+0x200>
   13200:	bf35                	j	1313c <emdnorm+0x146>
   13202:	008007b7          	lui	a5,0x800
   13206:	4691                	li	a3,4
   13208:	10000713          	li	a4,256
   1320c:	0ff78793          	add	a5,a5,255 # 8000ff <__BSS_END__+0x7e058f>
   13210:	c414                	sw	a3,8(s0)
   13212:	c85c                	sw	a5,20(s0)
   13214:	00e41c23          	sh	a4,24(s0)
   13218:	c454                	sw	a3,12(s0)
   1321a:	02e41123          	sh	a4,34(s0)
   1321e:	01542023          	sw	s5,0(s0)
   13222:	15204663          	bgtz	s2,1336e <emdnorm+0x378>
   13226:	0184d783          	lhu	a5,24(s1)
   1322a:	8526                	mv	a0,s1
   1322c:	8b85                	and	a5,a5,1
   1322e:	00f9e7b3          	or	a5,s3,a5
   13232:	0007899b          	sext.w	s3,a5
   13236:	883ff0ef          	jal	12ab8 <eshdn1>
   1323a:	441c                	lw	a5,8(s0)
   1323c:	01445683          	lhu	a3,20(s0)
   13240:	08f00513          	li	a0,143
   13244:	00179593          	sll	a1,a5,0x1
   13248:	95a6                	add	a1,a1,s1
   1324a:	0005d703          	lhu	a4,0(a1)
   1324e:	00d77633          	and	a2,a4,a3
   13252:	e7554ae3          	blt	a0,s5,130c6 <emdnorm+0xd0>
   13256:	2785                	addw	a5,a5,1
   13258:	4531                	li	a0,12
   1325a:	e2f55de3          	bge	a0,a5,13094 <emdnorm+0x9e>
   1325e:	b5a5                	j	130c6 <emdnorm+0xd0>
   13260:	00248793          	add	a5,s1,2
   13264:	04e9                	add	s1,s1,26
   13266:	0789                	add	a5,a5,2
   13268:	fe079f23          	sh	zero,-2(a5)
   1326c:	fe979de3          	bne	a5,s1,13266 <emdnorm+0x270>
   13270:	b5f1                	j	1313c <emdnorm+0x146>
   13272:	479d                	li	a5,7
   13274:	c41c                	sw	a5,8(s0)
   13276:	800107b7          	lui	a5,0x80010
   1327a:	17fd                	add	a5,a5,-1 # ffffffff8000ffff <__BSS_END__+0xffffffff7fff048f>
   1327c:	4705                	li	a4,1
   1327e:	c85c                	sw	a5,20(s0)
   13280:	4799                	li	a5,6
   13282:	00e41c23          	sh	a4,24(s0)
   13286:	c45c                	sw	a5,12(s0)
   13288:	02e41323          	sh	a4,38(s0)
   1328c:	01542023          	sw	s5,0(s0)
   13290:	f9205be3          	blez	s2,13226 <emdnorm+0x230>
   13294:	00e4d603          	lhu	a2,14(s1)
   13298:	00e48593          	add	a1,s1,14
   1329c:	47a1                	li	a5,8
   1329e:	bbdd                	j	13094 <emdnorm+0x9e>
   132a0:	0009059b          	sext.w	a1,s2
   132a4:	8526                	mv	a0,s1
   132a6:	a8dff0ef          	jal	12d32 <eshift.part.0>
   132aa:	c955                	beqz	a0,1335e <emdnorm+0x368>
   132ac:	0c0a8763          	beqz	s5,1337a <emdnorm+0x384>
   132b0:	00442a83          	lw	s5,4(s0)
   132b4:	401c                	lw	a5,0(s0)
   132b6:	4985                	li	s3,1
   132b8:	d8fa90e3          	bne	s5,a5,13038 <emdnorm+0x42>
   132bc:	b565                	j	13164 <emdnorm+0x16e>
   132be:	8526                	mv	a0,s1
   132c0:	ff8ff0ef          	jal	12ab8 <eshdn1>
   132c4:	67a1                	lui	a5,0x8
   132c6:	0905                	add	s2,s2,1
   132c8:	00049c23          	sh	zero,24(s1)
   132cc:	17f9                	add	a5,a5,-2 # 7ffe <exit-0x80ea>
   132ce:	f127cce3          	blt	a5,s2,131e6 <emdnorm+0x1f0>
   132d2:	b59d                	j	13138 <emdnorm+0x142>
   132d4:	09000793          	li	a5,144
   132d8:	00fa8f63          	beq	s5,a5,132f6 <emdnorm+0x300>
   132dc:	8526                	mv	a0,s1
   132de:	819ff0ef          	jal	12af6 <eshup1>
   132e2:	0044d783          	lhu	a5,4(s1)
   132e6:	eb99                	bnez	a5,132fc <emdnorm+0x306>
   132e8:	00049c23          	sh	zero,24(s1)
   132ec:	e40956e3          	bgez	s2,13138 <emdnorm+0x142>
   132f0:	00049123          	sh	zero,2(s1)
   132f4:	b5a1                	j	1313c <emdnorm+0x146>
   132f6:	0044d783          	lhu	a5,4(s1)
   132fa:	d7fd                	beqz	a5,132e8 <emdnorm+0x2f2>
   132fc:	8526                	mv	a0,s1
   132fe:	fbaff0ef          	jal	12ab8 <eshdn1>
   13302:	0905                	add	s2,s2,1
   13304:	b7d5                	j	132e8 <emdnorm+0x2f2>
   13306:	de0a07e3          	beqz	s4,130f4 <emdnorm+0xfe>
   1330a:	bd19                	j	13120 <emdnorm+0x12a>
   1330c:	008007b7          	lui	a5,0x800
   13310:	4699                	li	a3,6
   13312:	10000713          	li	a4,256
   13316:	0ff78793          	add	a5,a5,255 # 8000ff <__BSS_END__+0x7e058f>
   1331a:	c414                	sw	a3,8(s0)
   1331c:	c85c                	sw	a5,20(s0)
   1331e:	00e41c23          	sh	a4,24(s0)
   13322:	c454                	sw	a3,12(s0)
   13324:	02e41323          	sh	a4,38(s0)
   13328:	01542023          	sw	s5,0(s0)
   1332c:	ef205de3          	blez	s2,13226 <emdnorm+0x230>
   13330:	00c4c603          	lbu	a2,12(s1)
   13334:	00c48593          	add	a1,s1,12
   13338:	479d                	li	a5,7
   1333a:	bba9                	j	13094 <emdnorm+0x9e>
   1333c:	47b1                	li	a5,12
   1333e:	c41c                	sw	a5,8(s0)
   13340:	800107b7          	lui	a5,0x80010
   13344:	17fd                	add	a5,a5,-1 # ffffffff8000ffff <__BSS_END__+0xffffffff7fff048f>
   13346:	4705                	li	a4,1
   13348:	c85c                	sw	a5,20(s0)
   1334a:	47ad                	li	a5,11
   1334c:	c45c                	sw	a5,12(s0)
   1334e:	00e41c23          	sh	a4,24(s0)
   13352:	02e41823          	sh	a4,48(s0)
   13356:	01542023          	sw	s5,0(s0)
   1335a:	87d6                	mv	a5,s5
   1335c:	b511                	j	13160 <emdnorm+0x16a>
   1335e:	000a8e63          	beqz	s5,1337a <emdnorm+0x384>
   13362:	00442a83          	lw	s5,4(s0)
   13366:	401c                	lw	a5,0(s0)
   13368:	ccfa98e3          	bne	s5,a5,13038 <emdnorm+0x42>
   1336c:	bbe5                	j	13164 <emdnorm+0x16e>
   1336e:	0084c603          	lbu	a2,8(s1)
   13372:	00848593          	add	a1,s1,8
   13376:	4795                	li	a5,5
   13378:	bb31                	j	13094 <emdnorm+0x9e>
   1337a:	00049c23          	sh	zero,24(s1)
   1337e:	00049123          	sh	zero,2(s1)
   13382:	bb6d                	j	1313c <emdnorm+0x146>
   13384:	8abe                	mv	s5,a5
   13386:	bd55                	j	1323a <emdnorm+0x244>
   13388:	8abe                	mv	s5,a5
   1338a:	bd71                	j	13226 <emdnorm+0x230>

000000000001338c <eiremain>:
   1338c:	711d                	add	sp,sp,-96
   1338e:	e0ca                	sd	s2,64(sp)
   13390:	fc4e                	sd	s3,56(sp)
   13392:	892e                	mv	s2,a1
   13394:	00255983          	lhu	s3,2(a0)
   13398:	ec86                	sd	ra,88(sp)
   1339a:	e8a2                	sd	s0,80(sp)
   1339c:	e4a6                	sd	s1,72(sp)
   1339e:	f852                	sd	s4,48(sp)
   133a0:	84b2                	mv	s1,a2
   133a2:	ec5e                	sd	s7,24(sp)
   133a4:	f456                	sd	s5,40(sp)
   133a6:	f05a                	sd	s6,32(sp)
   133a8:	e862                	sd	s8,16(sp)
   133aa:	e466                	sd	s9,8(sp)
   133ac:	e06a                	sd	s10,0(sp)
   133ae:	8baa                	mv	s7,a0
   133b0:	877ff0ef          	jal	12c26 <enormlz>
   133b4:	00295403          	lhu	s0,2(s2)
   133b8:	87aa                	mv	a5,a0
   133ba:	854a                	mv	a0,s2
   133bc:	40f989b3          	sub	s3,s3,a5
   133c0:	03448a13          	add	s4,s1,52
   133c4:	863ff0ef          	jal	12c26 <enormlz>
   133c8:	8c09                	sub	s0,s0,a0
   133ca:	04e48713          	add	a4,s1,78
   133ce:	87d2                	mv	a5,s4
   133d0:	0789                	add	a5,a5,2
   133d2:	fe079f23          	sh	zero,-2(a5)
   133d6:	fee79de3          	bne	a5,a4,133d0 <eiremain+0x44>
   133da:	07344a63          	blt	s0,s3,1344e <eiremain+0xc2>
   133de:	004b8b13          	add	s6,s7,4
   133e2:	00490a93          	add	s5,s2,4
   133e6:	01ab8c13          	add	s8,s7,26
   133ea:	00290d13          	add	s10,s2,2
   133ee:	8756                	mv	a4,s5
   133f0:	87da                	mv	a5,s6
   133f2:	0007d603          	lhu	a2,0(a5)
   133f6:	00075683          	lhu	a3,0(a4)
   133fa:	0789                	add	a5,a5,2
   133fc:	0709                	add	a4,a4,2
   133fe:	06d61c63          	bne	a2,a3,13476 <eiremain+0xea>
   13402:	fefc18e3          	bne	s8,a5,133f2 <eiremain+0x66>
   13406:	018b8613          	add	a2,s7,24
   1340a:	01890713          	add	a4,s2,24
   1340e:	4681                	li	a3,0
   13410:	00075783          	lhu	a5,0(a4)
   13414:	00065583          	lhu	a1,0(a2)
   13418:	1779                	add	a4,a4,-2
   1341a:	1679                	add	a2,a2,-2
   1341c:	8f8d                	sub	a5,a5,a1
   1341e:	8f95                	sub	a5,a5,a3
   13420:	0107d693          	srl	a3,a5,0x10
   13424:	00f71123          	sh	a5,2(a4)
   13428:	8a85                	and	a3,a3,1
   1342a:	ffa713e3          	bne	a4,s10,13410 <eiremain+0x84>
   1342e:	4c85                	li	s9,1
   13430:	8552                	mv	a0,s4
   13432:	ec4ff0ef          	jal	12af6 <eshup1>
   13436:	04c4d783          	lhu	a5,76(s1)
   1343a:	147d                	add	s0,s0,-1
   1343c:	854a                	mv	a0,s2
   1343e:	00fce7b3          	or	a5,s9,a5
   13442:	04f49623          	sh	a5,76(s1)
   13446:	eb0ff0ef          	jal	12af6 <eshup1>
   1344a:	fb3452e3          	bge	s0,s3,133ee <eiremain+0x62>
   1344e:	86a2                	mv	a3,s0
   13450:	6446                	ld	s0,80(sp)
   13452:	60e6                	ld	ra,88(sp)
   13454:	79e2                	ld	s3,56(sp)
   13456:	7a42                	ld	s4,48(sp)
   13458:	7aa2                	ld	s5,40(sp)
   1345a:	7b02                	ld	s6,32(sp)
   1345c:	6be2                	ld	s7,24(sp)
   1345e:	6c42                	ld	s8,16(sp)
   13460:	6ca2                	ld	s9,8(sp)
   13462:	6d02                	ld	s10,0(sp)
   13464:	87a6                	mv	a5,s1
   13466:	854a                	mv	a0,s2
   13468:	64a6                	ld	s1,72(sp)
   1346a:	6906                	ld	s2,64(sp)
   1346c:	4701                	li	a4,0
   1346e:	4601                	li	a2,0
   13470:	4581                	li	a1,0
   13472:	6125                	add	sp,sp,96
   13474:	b649                	j	12ff6 <emdnorm>
   13476:	4c81                	li	s9,0
   13478:	fac6ece3          	bltu	a3,a2,13430 <eiremain+0xa4>
   1347c:	b769                	j	13406 <eiremain+0x7a>

000000000001347e <e113toe.isra.0>:
   1347e:	7179                	add	sp,sp,-48
   13480:	f022                	sd	s0,32(sp)
   13482:	f406                	sd	ra,40(sp)
   13484:	842e                	mv	s0,a1
   13486:	878a                	mv	a5,sp
   13488:	01a10713          	add	a4,sp,26
   1348c:	0789                	add	a5,a5,2
   1348e:	fe079f23          	sh	zero,-2(a5)
   13492:	fee79de3          	bne	a5,a4,1348c <e113toe.isra.0+0xe>
   13496:	00e55783          	lhu	a5,14(a0)
   1349a:	6721                	lui	a4,0x8
   1349c:	177d                	add	a4,a4,-1 # 7fff <exit-0x80e9>
   1349e:	03079693          	sll	a3,a5,0x30
   134a2:	96fd                	sra	a3,a3,0x3f
   134a4:	00d11023          	sh	a3,0(sp)
   134a8:	00e7f6b3          	and	a3,a5,a4
   134ac:	8636                	mv	a2,a3
   134ae:	04e68363          	beq	a3,a4,134f4 <e113toe.isra.0+0x76>
   134b2:	00e50793          	add	a5,a0,14
   134b6:	00d11123          	sh	a3,2(sp)
   134ba:	00610713          	add	a4,sp,6
   134be:	ffe7d683          	lhu	a3,-2(a5)
   134c2:	17f9                	add	a5,a5,-2
   134c4:	0709                	add	a4,a4,2
   134c6:	fed71f23          	sh	a3,-2(a4)
   134ca:	fef51ae3          	bne	a0,a5,134be <e113toe.isra.0+0x40>
   134ce:	ea19                	bnez	a2,134e4 <e113toe.isra.0+0x66>
   134d0:	00011223          	sh	zero,4(sp)
   134d4:	85a2                	mv	a1,s0
   134d6:	850a                	mv	a0,sp
   134d8:	ec2ff0ef          	jal	12b9a <emovo.constprop.0>
   134dc:	70a2                	ld	ra,40(sp)
   134de:	7402                	ld	s0,32(sp)
   134e0:	6145                	add	sp,sp,48
   134e2:	8082                	ret
   134e4:	4785                	li	a5,1
   134e6:	55fd                	li	a1,-1
   134e8:	850a                	mv	a0,sp
   134ea:	00f11223          	sh	a5,4(sp)
   134ee:	845ff0ef          	jal	12d32 <eshift.part.0>
   134f2:	b7cd                	j	134d4 <e113toe.isra.0+0x56>
   134f4:	87aa                	mv	a5,a0
   134f6:	00e50693          	add	a3,a0,14
   134fa:	0007d703          	lhu	a4,0(a5)
   134fe:	0789                	add	a5,a5,2
   13500:	ef21                	bnez	a4,13558 <e113toe.isra.0+0xda>
   13502:	fed79ce3          	bne	a5,a3,134fa <e113toe.isra.0+0x7c>
   13506:	01440713          	add	a4,s0,20
   1350a:	87a2                	mv	a5,s0
   1350c:	0789                	add	a5,a5,2
   1350e:	fe079f23          	sh	zero,-2(a5)
   13512:	fee79de3          	bne	a5,a4,1350c <e113toe.isra.0+0x8e>
   13516:	01240713          	add	a4,s0,18
   1351a:	87a2                	mv	a5,s0
   1351c:	0789                	add	a5,a5,2
   1351e:	fe079f23          	sh	zero,-2(a5)
   13522:	fee79de3          	bne	a5,a4,1351c <e113toe.isra.0+0x9e>
   13526:	01245783          	lhu	a5,18(s0)
   1352a:	66a1                	lui	a3,0x8
   1352c:	16fd                	add	a3,a3,-1 # 7fff <exit-0x80e9>
   1352e:	8fd5                	or	a5,a5,a3
   13530:	17c2                	sll	a5,a5,0x30
   13532:	93c1                	srl	a5,a5,0x30
   13534:	00f41923          	sh	a5,18(s0)
   13538:	00e51683          	lh	a3,14(a0)
   1353c:	fa06d0e3          	bgez	a3,134dc <e113toe.isra.0+0x5e>
   13540:	86a2                	mv	a3,s0
   13542:	0006d603          	lhu	a2,0(a3)
   13546:	0689                	add	a3,a3,2
   13548:	fa51                	bnez	a2,134dc <e113toe.isra.0+0x5e>
   1354a:	fee69ce3          	bne	a3,a4,13542 <e113toe.isra.0+0xc4>
   1354e:	7761                	lui	a4,0xffff8
   13550:	8fb9                	xor	a5,a5,a4
   13552:	00f41923          	sh	a5,18(s0)
   13556:	b759                	j	134dc <e113toe.isra.0+0x5e>
   13558:	01040713          	add	a4,s0,16
   1355c:	87a2                	mv	a5,s0
   1355e:	0789                	add	a5,a5,2
   13560:	fe079f23          	sh	zero,-2(a5)
   13564:	fee79de3          	bne	a5,a4,1355e <e113toe.isra.0+0xe0>
   13568:	77f1                	lui	a5,0xffffc
   1356a:	00f41823          	sh	a5,16(s0)
   1356e:	77e1                	lui	a5,0xffff8
   13570:	fff7c793          	not	a5,a5
   13574:	00f41923          	sh	a5,18(s0)
   13578:	b795                	j	134dc <e113toe.isra.0+0x5e>

000000000001357a <ediv>:
   1357a:	01255783          	lhu	a5,18(a0)
   1357e:	7151                	add	sp,sp,-240
   13580:	f1a2                	sd	s0,224(sp)
   13582:	fff7c793          	not	a5,a5
   13586:	eda6                	sd	s1,216(sp)
   13588:	e9ca                	sd	s2,208(sp)
   1358a:	e5ce                	sd	s3,200(sp)
   1358c:	f586                	sd	ra,232(sp)
   1358e:	e1d2                	sd	s4,192(sp)
   13590:	fd56                	sd	s5,184(sp)
   13592:	f95a                	sd	s6,176(sp)
   13594:	f55e                	sd	s7,168(sp)
   13596:	f162                	sd	s8,160(sp)
   13598:	ed66                	sd	s9,152(sp)
   1359a:	e96a                	sd	s10,144(sp)
   1359c:	e56e                	sd	s11,136(sp)
   1359e:	03179713          	sll	a4,a5,0x31
   135a2:	84aa                	mv	s1,a0
   135a4:	89ae                	mv	s3,a1
   135a6:	8432                	mv	s0,a2
   135a8:	8936                	mv	s2,a3
   135aa:	eb11                	bnez	a4,135be <ediv+0x44>
   135ac:	01250693          	add	a3,a0,18
   135b0:	87aa                	mv	a5,a0
   135b2:	0007d703          	lhu	a4,0(a5) # ffffffffffff8000 <__BSS_END__+0xfffffffffffd8490>
   135b6:	0789                	add	a5,a5,2
   135b8:	ef4d                	bnez	a4,13672 <ediv+0xf8>
   135ba:	fed79ce3          	bne	a5,a3,135b2 <ediv+0x38>
   135be:	0129d783          	lhu	a5,18(s3)
   135c2:	fff7c793          	not	a5,a5
   135c6:	03179713          	sll	a4,a5,0x31
   135ca:	eb11                	bnez	a4,135de <ediv+0x64>
   135cc:	01298693          	add	a3,s3,18
   135d0:	87ce                	mv	a5,s3
   135d2:	0007d703          	lhu	a4,0(a5)
   135d6:	0789                	add	a5,a5,2
   135d8:	eb45                	bnez	a4,13688 <ediv+0x10e>
   135da:	fed79ce3          	bne	a5,a3,135d2 <ediv+0x58>
   135de:	0000a597          	auipc	a1,0xa
   135e2:	a4258593          	add	a1,a1,-1470 # 1d020 <ezero>
   135e6:	8526                	mv	a0,s1
   135e8:	927ff0ef          	jal	12f0e <ecmp>
   135ec:	12050763          	beqz	a0,1371a <ediv+0x1a0>
   135f0:	0124d603          	lhu	a2,18(s1)
   135f4:	67a1                	lui	a5,0x8
   135f6:	17fd                	add	a5,a5,-1 # 7fff <exit-0x80e9>
   135f8:	00f67533          	and	a0,a2,a5
   135fc:	0af51163          	bne	a0,a5,1369e <ediv+0x124>
   13600:	01248693          	add	a3,s1,18
   13604:	87a6                	mv	a5,s1
   13606:	0007d703          	lhu	a4,0(a5)
   1360a:	0789                	add	a5,a5,2
   1360c:	eb49                	bnez	a4,1369e <ediv+0x124>
   1360e:	fed79ce3          	bne	a5,a3,13606 <ediv+0x8c>
   13612:	0129d703          	lhu	a4,18(s3)
   13616:	fff74793          	not	a5,a4
   1361a:	03179693          	sll	a3,a5,0x31
   1361e:	e6f5                	bnez	a3,1370a <ediv+0x190>
   13620:	01298693          	add	a3,s3,18
   13624:	87ce                	mv	a5,s3
   13626:	0007d583          	lhu	a1,0(a5)
   1362a:	0789                	add	a5,a5,2
   1362c:	36059c63          	bnez	a1,139a4 <ediv+0x42a>
   13630:	fed79be3          	bne	a5,a3,13626 <ediv+0xac>
   13634:	01040713          	add	a4,s0,16
   13638:	87a2                	mv	a5,s0
   1363a:	0789                	add	a5,a5,2
   1363c:	fe079f23          	sh	zero,-2(a5)
   13640:	fee79de3          	bne	a5,a4,1363a <ediv+0xc0>
   13644:	77f1                	lui	a5,0xffffc
   13646:	00f41823          	sh	a5,16(s0)
   1364a:	77e1                	lui	a5,0xffff8
   1364c:	fff7c793          	not	a5,a5
   13650:	00f41923          	sh	a5,18(s0)
   13654:	70ae                	ld	ra,232(sp)
   13656:	740e                	ld	s0,224(sp)
   13658:	64ee                	ld	s1,216(sp)
   1365a:	694e                	ld	s2,208(sp)
   1365c:	69ae                	ld	s3,200(sp)
   1365e:	6a0e                	ld	s4,192(sp)
   13660:	7aea                	ld	s5,184(sp)
   13662:	7b4a                	ld	s6,176(sp)
   13664:	7baa                	ld	s7,168(sp)
   13666:	7c0a                	ld	s8,160(sp)
   13668:	6cea                	ld	s9,152(sp)
   1366a:	6d4a                	ld	s10,144(sp)
   1366c:	6daa                	ld	s11,136(sp)
   1366e:	616d                	add	sp,sp,240
   13670:	8082                	ret
   13672:	01448713          	add	a4,s1,20
   13676:	0004d783          	lhu	a5,0(s1)
   1367a:	0489                	add	s1,s1,2
   1367c:	0409                	add	s0,s0,2
   1367e:	fef41f23          	sh	a5,-2(s0)
   13682:	fee49ae3          	bne	s1,a4,13676 <ediv+0xfc>
   13686:	b7f9                	j	13654 <ediv+0xda>
   13688:	01440713          	add	a4,s0,20
   1368c:	0009d783          	lhu	a5,0(s3)
   13690:	0409                	add	s0,s0,2
   13692:	0989                	add	s3,s3,2
   13694:	fef41f23          	sh	a5,-2(s0)
   13698:	fee41ae3          	bne	s0,a4,1368c <ediv+0x112>
   1369c:	bf65                	j	13654 <ediv+0xda>
   1369e:	0129d703          	lhu	a4,18(s3)
   136a2:	fff74793          	not	a5,a4
   136a6:	03179693          	sll	a3,a5,0x31
   136aa:	e2d1                	bnez	a3,1372e <ediv+0x1b4>
   136ac:	4801                	li	a6,0
   136ae:	01298693          	add	a3,s3,18
   136b2:	87ce                	mv	a5,s3
   136b4:	0007d583          	lhu	a1,0(a5) # ffffffffffff8000 <__BSS_END__+0xfffffffffffd8490>
   136b8:	0789                	add	a5,a5,2
   136ba:	e5b1                	bnez	a1,13706 <ediv+0x18c>
   136bc:	fed79ce3          	bne	a5,a3,136b4 <ediv+0x13a>
   136c0:	67a1                	lui	a5,0x8
   136c2:	17fd                	add	a5,a5,-1 # 7fff <exit-0x80e9>
   136c4:	0af50663          	beq	a0,a5,13770 <ediv+0x1f6>
   136c8:	823d                	srl	a2,a2,0xf
   136ca:	0009d783          	lhu	a5,0(s3)
   136ce:	0989                	add	s3,s3,2
   136d0:	2c079663          	bnez	a5,1399c <ediv+0x422>
   136d4:	fed99be3          	bne	s3,a3,136ca <ediv+0x150>
   136d8:	00f75793          	srl	a5,a4,0xf
   136dc:	8fb1                	xor	a5,a5,a2
   136de:	00f7979b          	sllw	a5,a5,0xf
   136e2:	00f41923          	sh	a5,18(s0)
   136e6:	01240713          	add	a4,s0,18
   136ea:	87a2                	mv	a5,s0
   136ec:	0789                	add	a5,a5,2
   136ee:	fe079f23          	sh	zero,-2(a5)
   136f2:	fee79de3          	bne	a5,a4,136ec <ediv+0x172>
   136f6:	01245783          	lhu	a5,18(s0)
   136fa:	6721                	lui	a4,0x8
   136fc:	177d                	add	a4,a4,-1 # 7fff <exit-0x80e9>
   136fe:	8fd9                	or	a5,a5,a4
   13700:	00f41923          	sh	a5,18(s0)
   13704:	bf81                	j	13654 <ediv+0xda>
   13706:	02080463          	beqz	a6,1372e <ediv+0x1b4>
   1370a:	01440793          	add	a5,s0,20
   1370e:	0409                	add	s0,s0,2
   13710:	fe041f23          	sh	zero,-2(s0)
   13714:	fef41de3          	bne	s0,a5,1370e <ediv+0x194>
   13718:	bf35                	j	13654 <ediv+0xda>
   1371a:	0000a597          	auipc	a1,0xa
   1371e:	90658593          	add	a1,a1,-1786 # 1d020 <ezero>
   13722:	854e                	mv	a0,s3
   13724:	feaff0ef          	jal	12f0e <ecmp>
   13728:	ec0514e3          	bnez	a0,135f0 <ediv+0x76>
   1372c:	b721                	j	13634 <ediv+0xba>
   1372e:	100c                	add	a1,sp,32
   13730:	8526                	mv	a0,s1
   13732:	f48ff0ef          	jal	12e7a <emovi>
   13736:	008c                	add	a1,sp,64
   13738:	854e                	mv	a0,s3
   1373a:	f40ff0ef          	jal	12e7a <emovi>
   1373e:	04215b03          	lhu	s6,66(sp)
   13742:	02215c03          	lhu	s8,34(sp)
   13746:	020b1f63          	bnez	s6,13784 <ediv+0x20a>
   1374a:	04210793          	add	a5,sp,66
   1374e:	05810c93          	add	s9,sp,88
   13752:	0007d703          	lhu	a4,0(a5)
   13756:	0789                	add	a5,a5,2
   13758:	22071463          	bnez	a4,13980 <ediv+0x406>
   1375c:	fefc9be3          	bne	s9,a5,13752 <ediv+0x1d8>
   13760:	01440793          	add	a5,s0,20
   13764:	0409                	add	s0,s0,2
   13766:	fe041f23          	sh	zero,-2(s0)
   1376a:	fef41de3          	bne	s0,a5,13764 <ediv+0x1ea>
   1376e:	b5dd                	j	13654 <ediv+0xda>
   13770:	01248593          	add	a1,s1,18
   13774:	0004d783          	lhu	a5,0(s1)
   13778:	0489                	add	s1,s1,2
   1377a:	22079363          	bnez	a5,139a0 <ediv+0x426>
   1377e:	feb49be3          	bne	s1,a1,13774 <ediv+0x1fa>
   13782:	b799                	j	136c8 <ediv+0x14e>
   13784:	e45a                	sd	s6,8(sp)
   13786:	040c1063          	bnez	s8,137c6 <ediv+0x24c>
   1378a:	02210793          	add	a5,sp,34
   1378e:	1834                	add	a3,sp,56
   13790:	0007d703          	lhu	a4,0(a5)
   13794:	0789                	add	a5,a5,2
   13796:	1e071c63          	bnez	a4,1398e <ediv+0x414>
   1379a:	fed79be3          	bne	a5,a3,13790 <ediv+0x216>
   1379e:	02015683          	lhu	a3,32(sp)
   137a2:	04015603          	lhu	a2,64(sp)
   137a6:	01240713          	add	a4,s0,18
   137aa:	87a2                	mv	a5,s0
   137ac:	8e91                	sub	a3,a3,a2
   137ae:	00d036b3          	snez	a3,a3
   137b2:	00f6969b          	sllw	a3,a3,0xf
   137b6:	00d41923          	sh	a3,18(s0)
   137ba:	0789                	add	a5,a5,2
   137bc:	fe079f23          	sh	zero,-2(a5)
   137c0:	fee79de3          	bne	a5,a4,137ba <ediv+0x240>
   137c4:	bf0d                	j	136f6 <ediv+0x17c>
   137c6:	e862                	sd	s8,16(sp)
   137c8:	4786                	lw	a5,64(sp)
   137ca:	03890493          	add	s1,s2,56
   137ce:	03490713          	add	a4,s2,52
   137d2:	02f92a23          	sw	a5,52(s2)
   137d6:	ec3a                	sd	a4,24(sp)
   137d8:	04e90993          	add	s3,s2,78
   137dc:	87a6                	mv	a5,s1
   137de:	0789                	add	a5,a5,2
   137e0:	fe079f23          	sh	zero,-2(a5)
   137e4:	ff379de3          	bne	a5,s3,137de <ediv+0x264>
   137e8:	0088                	add	a0,sp,64
   137ea:	aceff0ef          	jal	12ab8 <eshdn1>
   137ee:	02615b83          	lhu	s7,38(sp)
   137f2:	6a41                	lui	s4,0x10
   137f4:	04210d13          	add	s10,sp,66
   137f8:	010b9a93          	sll	s5,s7,0x10
   137fc:	417a8ab3          	sub	s5,s5,s7
   13800:	05810c93          	add	s9,sp,88
   13804:	1a7d                	add	s4,s4,-1 # ffff <exit-0xe9>
   13806:	07a10d93          	add	s11,sp,122
   1380a:	06210c13          	add	s8,sp,98
   1380e:	04415783          	lhu	a5,68(sp)
   13812:	04615703          	lhu	a4,70(sp)
   13816:	8b52                	mv	s6,s4
   13818:	07c2                	sll	a5,a5,0x10
   1381a:	97ba                	add	a5,a5,a4
   1381c:	00fae863          	bltu	s5,a5,1382c <ediv+0x2b2>
   13820:	0377d7b3          	divu	a5,a5,s7
   13824:	03079b13          	sll	s6,a5,0x30
   13828:	030b5b13          	srl	s6,s6,0x30
   1382c:	1090                	add	a2,sp,96
   1382e:	100c                	add	a1,sp,32
   13830:	855a                	mv	a0,s6
   13832:	b00ff0ef          	jal	12b32 <m16m>
   13836:	00d8                	add	a4,sp,68
   13838:	10dc                	add	a5,sp,100
   1383a:	0007d603          	lhu	a2,0(a5)
   1383e:	00075683          	lhu	a3,0(a4)
   13842:	0789                	add	a5,a5,2
   13844:	0709                	add	a4,a4,2
   13846:	0ad61a63          	bne	a2,a3,138fa <ediv+0x380>
   1384a:	ffb798e3          	bne	a5,s11,1383a <ediv+0x2c0>
   1384e:	4681                	li	a3,0
   13850:	18b0                	add	a2,sp,120
   13852:	87e6                	mv	a5,s9
   13854:	0007d703          	lhu	a4,0(a5)
   13858:	00065583          	lhu	a1,0(a2)
   1385c:	17f9                	add	a5,a5,-2
   1385e:	1679                	add	a2,a2,-2
   13860:	8f0d                	sub	a4,a4,a1
   13862:	8f15                	sub	a4,a4,a3
   13864:	01075693          	srl	a3,a4,0x10
   13868:	00e79123          	sh	a4,2(a5)
   1386c:	8a85                	and	a3,a3,1
   1386e:	ffa793e3          	bne	a5,s10,13854 <ediv+0x2da>
   13872:	01649023          	sh	s6,0(s1)
   13876:	00dc                	add	a5,sp,68
   13878:	0027d703          	lhu	a4,2(a5)
   1387c:	0789                	add	a5,a5,2
   1387e:	fee79f23          	sh	a4,-2(a5)
   13882:	ff979be3          	bne	a5,s9,13878 <ediv+0x2fe>
   13886:	04011c23          	sh	zero,88(sp)
   1388a:	0489                	add	s1,s1,2
   1388c:	f89991e3          	bne	s3,s1,1380e <ediv+0x294>
   13890:	4701                	li	a4,0
   13892:	00dc                	add	a5,sp,68
   13894:	05a10693          	add	a3,sp,90
   13898:	0007d603          	lhu	a2,0(a5)
   1389c:	0789                	add	a5,a5,2
   1389e:	8f51                	or	a4,a4,a2
   138a0:	fed79ce3          	bne	a5,a3,13898 <ediv+0x31e>
   138a4:	64e2                	ld	s1,24(sp)
   138a6:	2701                	sext.w	a4,a4
   138a8:	00e035b3          	snez	a1,a4
   138ac:	009c                	add	a5,sp,64
   138ae:	0004d703          	lhu	a4,0(s1)
   138b2:	0789                	add	a5,a5,2
   138b4:	0489                	add	s1,s1,2
   138b6:	fee79f23          	sh	a4,-2(a5)
   138ba:	fed79ae3          	bne	a5,a3,138ae <ediv+0x334>
   138be:	67a2                	ld	a5,8(sp)
   138c0:	6742                	ld	a4,16(sp)
   138c2:	6691                	lui	a3,0x4
   138c4:	16fd                	add	a3,a3,-1 # 3fff <exit-0xc0e9>
   138c6:	40e78b33          	sub	s6,a5,a4
   138ca:	0088                	add	a0,sp,64
   138cc:	87ca                	mv	a5,s2
   138ce:	04000713          	li	a4,64
   138d2:	96da                	add	a3,a3,s6
   138d4:	4601                	li	a2,0
   138d6:	f20ff0ef          	jal	12ff6 <emdnorm>
   138da:	04015703          	lhu	a4,64(sp)
   138de:	02015783          	lhu	a5,32(sp)
   138e2:	85a2                	mv	a1,s0
   138e4:	0088                	add	a0,sp,64
   138e6:	8f99                	sub	a5,a5,a4
   138e8:	00f037b3          	snez	a5,a5
   138ec:	40f007bb          	negw	a5,a5
   138f0:	04f11023          	sh	a5,64(sp)
   138f4:	aa6ff0ef          	jal	12b9a <emovo.constprop.0>
   138f8:	bbb1                	j	13654 <ediv+0xda>
   138fa:	f4c6fae3          	bgeu	a3,a2,1384e <ediv+0x2d4>
   138fe:	fffb079b          	addw	a5,s6,-1
   13902:	03079313          	sll	t1,a5,0x30
   13906:	03035313          	srl	t1,t1,0x30
   1390a:	4681                	li	a3,0
   1390c:	1830                	add	a2,sp,56
   1390e:	18b8                	add	a4,sp,120
   13910:	00075783          	lhu	a5,0(a4)
   13914:	00065583          	lhu	a1,0(a2)
   13918:	1779                	add	a4,a4,-2
   1391a:	1679                	add	a2,a2,-2
   1391c:	8f8d                	sub	a5,a5,a1
   1391e:	8f95                	sub	a5,a5,a3
   13920:	0107d693          	srl	a3,a5,0x10
   13924:	00f71123          	sh	a5,2(a4)
   13928:	8a85                	and	a3,a3,1
   1392a:	ff8713e3          	bne	a4,s8,13910 <ediv+0x396>
   1392e:	00d8                	add	a4,sp,68
   13930:	10dc                	add	a5,sp,100
   13932:	0007d603          	lhu	a2,0(a5)
   13936:	00075683          	lhu	a3,0(a4)
   1393a:	0789                	add	a5,a5,2
   1393c:	0709                	add	a4,a4,2
   1393e:	00d61663          	bne	a2,a3,1394a <ediv+0x3d0>
   13942:	ffb798e3          	bne	a5,s11,13932 <ediv+0x3b8>
   13946:	8b1a                	mv	s6,t1
   13948:	b719                	j	1384e <ediv+0x2d4>
   1394a:	fec6fee3          	bgeu	a3,a2,13946 <ediv+0x3cc>
   1394e:	ffeb051b          	addw	a0,s6,-2
   13952:	03051b13          	sll	s6,a0,0x30
   13956:	030b5b13          	srl	s6,s6,0x30
   1395a:	4681                	li	a3,0
   1395c:	1830                	add	a2,sp,56
   1395e:	18b8                	add	a4,sp,120
   13960:	00075783          	lhu	a5,0(a4)
   13964:	00065583          	lhu	a1,0(a2)
   13968:	1779                	add	a4,a4,-2
   1396a:	1679                	add	a2,a2,-2
   1396c:	8f8d                	sub	a5,a5,a1
   1396e:	8f95                	sub	a5,a5,a3
   13970:	0107d693          	srl	a3,a5,0x10
   13974:	00f71123          	sh	a5,2(a4)
   13978:	8a85                	and	a3,a3,1
   1397a:	ff8713e3          	bne	a4,s8,13960 <ediv+0x3e6>
   1397e:	bdc1                	j	1384e <ediv+0x2d4>
   13980:	0088                	add	a0,sp,64
   13982:	aa4ff0ef          	jal	12c26 <enormlz>
   13986:	40a007b3          	neg	a5,a0
   1398a:	e43e                	sd	a5,8(sp)
   1398c:	bbed                	j	13786 <ediv+0x20c>
   1398e:	1008                	add	a0,sp,32
   13990:	a96ff0ef          	jal	12c26 <enormlz>
   13994:	40a007b3          	neg	a5,a0
   13998:	e83e                	sd	a5,16(sp)
   1399a:	b53d                	j	137c8 <ediv+0x24e>
   1399c:	4781                	li	a5,0
   1399e:	bb3d                	j	136dc <ediv+0x162>
   139a0:	4601                	li	a2,0
   139a2:	b325                	j	136ca <ediv+0x150>
   139a4:	4805                	li	a6,1
   139a6:	b331                	j	136b2 <ediv+0x138>

00000000000139a8 <emul>:
   139a8:	01255803          	lhu	a6,18(a0)
   139ac:	6721                	lui	a4,0x8
   139ae:	7131                	add	sp,sp,-192
   139b0:	177d                	add	a4,a4,-1 # 7fff <exit-0x80e9>
   139b2:	f922                	sd	s0,176(sp)
   139b4:	f526                	sd	s1,168(sp)
   139b6:	f14a                	sd	s2,160(sp)
   139b8:	e556                	sd	s5,136(sp)
   139ba:	84aa                	mv	s1,a0
   139bc:	fd06                	sd	ra,184(sp)
   139be:	ed4e                	sd	s3,152(sp)
   139c0:	e952                	sd	s4,144(sp)
   139c2:	e15a                	sd	s6,128(sp)
   139c4:	fcde                	sd	s7,120(sp)
   139c6:	f8e2                	sd	s8,112(sp)
   139c8:	f4e6                	sd	s9,104(sp)
   139ca:	f0ea                	sd	s10,96(sp)
   139cc:	00e87533          	and	a0,a6,a4
   139d0:	892e                	mv	s2,a1
   139d2:	8432                	mv	s0,a2
   139d4:	8ab6                	mv	s5,a3
   139d6:	12e51863          	bne	a0,a4,13b06 <emul+0x15e>
   139da:	01248993          	add	s3,s1,18
   139de:	8726                	mv	a4,s1
   139e0:	00075603          	lhu	a2,0(a4)
   139e4:	0709                	add	a4,a4,2
   139e6:	18061a63          	bnez	a2,13b7a <emul+0x1d2>
   139ea:	ff371be3          	bne	a4,s3,139e0 <emul+0x38>
   139ee:	01295603          	lhu	a2,18(s2)
   139f2:	fff64793          	not	a5,a2
   139f6:	03179713          	sll	a4,a5,0x31
   139fa:	10070c63          	beqz	a4,13b12 <emul+0x16a>
   139fe:	87a6                	mv	a5,s1
   13a00:	0007d703          	lhu	a4,0(a5)
   13a04:	0789                	add	a5,a5,2
   13a06:	1e071763          	bnez	a4,13bf4 <emul+0x24c>
   13a0a:	ff379be3          	bne	a5,s3,13a00 <emul+0x58>
   13a0e:	00009597          	auipc	a1,0x9
   13a12:	61258593          	add	a1,a1,1554 # 1d020 <ezero>
   13a16:	854a                	mv	a0,s2
   13a18:	cf6ff0ef          	jal	12f0e <ecmp>
   13a1c:	1e050f63          	beqz	a0,13c1a <emul+0x272>
   13a20:	01295603          	lhu	a2,18(s2)
   13a24:	65a1                	lui	a1,0x8
   13a26:	15fd                	add	a1,a1,-1 # 7fff <exit-0x80e9>
   13a28:	00b67733          	and	a4,a2,a1
   13a2c:	86ba                	mv	a3,a4
   13a2e:	01290793          	add	a5,s2,18
   13a32:	30b71d63          	bne	a4,a1,13d4c <emul+0x3a4>
   13a36:	874a                	mv	a4,s2
   13a38:	00075683          	lhu	a3,0(a4)
   13a3c:	0709                	add	a4,a4,2
   13a3e:	18069663          	bnez	a3,13bca <emul+0x222>
   13a42:	fee79be3          	bne	a5,a4,13a38 <emul+0x90>
   13a46:	00009597          	auipc	a1,0x9
   13a4a:	5da58593          	add	a1,a1,1498 # 1d020 <ezero>
   13a4e:	8526                	mv	a0,s1
   13a50:	cbeff0ef          	jal	12f0e <ecmp>
   13a54:	1c050363          	beqz	a0,13c1a <emul+0x272>
   13a58:	0124d803          	lhu	a6,18(s1)
   13a5c:	01295603          	lhu	a2,18(s2)
   13a60:	67a1                	lui	a5,0x8
   13a62:	17fd                	add	a5,a5,-1 # 7fff <exit-0x80e9>
   13a64:	00f87733          	and	a4,a6,a5
   13a68:	00f676b3          	and	a3,a2,a5
   13a6c:	85ba                	mv	a1,a4
   13a6e:	16f70763          	beq	a4,a5,13bdc <emul+0x234>
   13a72:	8736                	mv	a4,a3
   13a74:	86ae                	mv	a3,a1
   13a76:	67a1                	lui	a5,0x8
   13a78:	2701                	sext.w	a4,a4
   13a7a:	17fd                	add	a5,a5,-1 # 7fff <exit-0x80e9>
   13a7c:	0af71e63          	bne	a4,a5,13b38 <emul+0x190>
   13a80:	01290793          	add	a5,s2,18
   13a84:	874a                	mv	a4,s2
   13a86:	00075583          	lhu	a1,0(a4)
   13a8a:	0709                	add	a4,a4,2
   13a8c:	e5d5                	bnez	a1,13b38 <emul+0x190>
   13a8e:	fee79ce3          	bne	a5,a4,13a86 <emul+0xde>
   13a92:	65a1                	lui	a1,0x8
   13a94:	15fd                	add	a1,a1,-1 # 7fff <exit-0x80e9>
   13a96:	0006871b          	sext.w	a4,a3
   13a9a:	01248993          	add	s3,s1,18
   13a9e:	18b69f63          	bne	a3,a1,13c3c <emul+0x294>
   13aa2:	0004d783          	lhu	a5,0(s1)
   13aa6:	0489                	add	s1,s1,2
   13aa8:	18079d63          	bnez	a5,13c42 <emul+0x29a>
   13aac:	fe999be3          	bne	s3,s1,13aa2 <emul+0xfa>
   13ab0:	00f85813          	srl	a6,a6,0xf
   13ab4:	67a1                	lui	a5,0x8
   13ab6:	17fd                	add	a5,a5,-1 # 7fff <exit-0x80e9>
   13ab8:	14f70863          	beq	a4,a5,13c08 <emul+0x260>
   13abc:	00f65793          	srl	a5,a2,0xf
   13ac0:	0107c7b3          	xor	a5,a5,a6
   13ac4:	00f7979b          	sllw	a5,a5,0xf
   13ac8:	00f41923          	sh	a5,18(s0)
   13acc:	01240713          	add	a4,s0,18
   13ad0:	87a2                	mv	a5,s0
   13ad2:	0789                	add	a5,a5,2
   13ad4:	fe079f23          	sh	zero,-2(a5)
   13ad8:	fee79de3          	bne	a5,a4,13ad2 <emul+0x12a>
   13adc:	01245783          	lhu	a5,18(s0)
   13ae0:	6721                	lui	a4,0x8
   13ae2:	177d                	add	a4,a4,-1 # 7fff <exit-0x80e9>
   13ae4:	8fd9                	or	a5,a5,a4
   13ae6:	00f41923          	sh	a5,18(s0)
   13aea:	70ea                	ld	ra,184(sp)
   13aec:	744a                	ld	s0,176(sp)
   13aee:	74aa                	ld	s1,168(sp)
   13af0:	790a                	ld	s2,160(sp)
   13af2:	69ea                	ld	s3,152(sp)
   13af4:	6a4a                	ld	s4,144(sp)
   13af6:	6aaa                	ld	s5,136(sp)
   13af8:	6b0a                	ld	s6,128(sp)
   13afa:	7be6                	ld	s7,120(sp)
   13afc:	7c46                	ld	s8,112(sp)
   13afe:	7ca6                	ld	s9,104(sp)
   13b00:	7d06                	ld	s10,96(sp)
   13b02:	6129                	add	sp,sp,192
   13b04:	8082                	ret
   13b06:	0125d603          	lhu	a2,18(a1)
   13b0a:	00e677b3          	and	a5,a2,a4
   13b0e:	02e79563          	bne	a5,a4,13b38 <emul+0x190>
   13b12:	01290793          	add	a5,s2,18
   13b16:	874a                	mv	a4,s2
   13b18:	00075683          	lhu	a3,0(a4)
   13b1c:	0709                	add	a4,a4,2
   13b1e:	eaad                	bnez	a3,13b90 <emul+0x1e8>
   13b20:	fef71ce3          	bne	a4,a5,13b18 <emul+0x170>
   13b24:	6721                	lui	a4,0x8
   13b26:	177d                	add	a4,a4,-1 # 7fff <exit-0x80e9>
   13b28:	01248993          	add	s3,s1,18
   13b2c:	ece509e3          	beq	a0,a4,139fe <emul+0x56>
   13b30:	00e676b3          	and	a3,a2,a4
   13b34:	f0e681e3          	beq	a3,a4,13a36 <emul+0x8e>
   13b38:	8526                	mv	a0,s1
   13b3a:	858a                	mv	a1,sp
   13b3c:	b3eff0ef          	jal	12e7a <emovi>
   13b40:	854a                	mv	a0,s2
   13b42:	100c                	add	a1,sp,32
   13b44:	b36ff0ef          	jal	12e7a <emovi>
   13b48:	00215903          	lhu	s2,2(sp)
   13b4c:	02215483          	lhu	s1,34(sp)
   13b50:	04090b63          	beqz	s2,13ba6 <emul+0x1fe>
   13b54:	ecfd                	bnez	s1,13c52 <emul+0x2aa>
   13b56:	02210793          	add	a5,sp,34
   13b5a:	1834                	add	a3,sp,56
   13b5c:	0007d703          	lhu	a4,0(a5)
   13b60:	0789                	add	a5,a5,2
   13b62:	1c071d63          	bnez	a4,13d3c <emul+0x394>
   13b66:	fed79be3          	bne	a5,a3,13b5c <emul+0x1b4>
   13b6a:	01440793          	add	a5,s0,20
   13b6e:	0409                	add	s0,s0,2
   13b70:	fe041f23          	sh	zero,-2(s0)
   13b74:	fe879de3          	bne	a5,s0,13b6e <emul+0x1c6>
   13b78:	bf8d                	j	13aea <emul+0x142>
   13b7a:	01440713          	add	a4,s0,20
   13b7e:	0004d783          	lhu	a5,0(s1)
   13b82:	0409                	add	s0,s0,2
   13b84:	0489                	add	s1,s1,2
   13b86:	fef41f23          	sh	a5,-2(s0)
   13b8a:	fee41ae3          	bne	s0,a4,13b7e <emul+0x1d6>
   13b8e:	bfb1                	j	13aea <emul+0x142>
   13b90:	01490713          	add	a4,s2,20
   13b94:	00095783          	lhu	a5,0(s2)
   13b98:	0909                	add	s2,s2,2
   13b9a:	0409                	add	s0,s0,2
   13b9c:	fef41f23          	sh	a5,-2(s0)
   13ba0:	ff271ae3          	bne	a4,s2,13b94 <emul+0x1ec>
   13ba4:	b799                	j	13aea <emul+0x142>
   13ba6:	00210793          	add	a5,sp,2
   13baa:	0834                	add	a3,sp,24
   13bac:	0007d703          	lhu	a4,0(a5)
   13bb0:	0789                	add	a5,a5,2
   13bb2:	16071f63          	bnez	a4,13d30 <emul+0x388>
   13bb6:	fef69be3          	bne	a3,a5,13bac <emul+0x204>
   13bba:	01440793          	add	a5,s0,20
   13bbe:	0409                	add	s0,s0,2
   13bc0:	fe041f23          	sh	zero,-2(s0)
   13bc4:	fef41de3          	bne	s0,a5,13bbe <emul+0x216>
   13bc8:	b70d                	j	13aea <emul+0x142>
   13bca:	0124d803          	lhu	a6,18(s1)
   13bce:	65a1                	lui	a1,0x8
   13bd0:	15fd                	add	a1,a1,-1 # 7fff <exit-0x80e9>
   13bd2:	00b87733          	and	a4,a6,a1
   13bd6:	86ba                	mv	a3,a4
   13bd8:	eab716e3          	bne	a4,a1,13a84 <emul+0xdc>
   13bdc:	01248993          	add	s3,s1,18
   13be0:	87a6                	mv	a5,s1
   13be2:	0007d703          	lhu	a4,0(a5)
   13be6:	0789                	add	a5,a5,2
   13be8:	e32d                	bnez	a4,13c4a <emul+0x2a2>
   13bea:	fef99ce3          	bne	s3,a5,13be2 <emul+0x23a>
   13bee:	0006871b          	sext.w	a4,a3
   13bf2:	bd45                	j	13aa2 <emul+0xfa>
   13bf4:	65a1                	lui	a1,0x8
   13bf6:	15fd                	add	a1,a1,-1 # 7fff <exit-0x80e9>
   13bf8:	00b67733          	and	a4,a2,a1
   13bfc:	86ba                	mv	a3,a4
   13bfe:	01290793          	add	a5,s2,18
   13c02:	e2b70ae3          	beq	a4,a1,13a36 <emul+0x8e>
   13c06:	bfe9                	j	13be0 <emul+0x238>
   13c08:	01290793          	add	a5,s2,18
   13c0c:	00095703          	lhu	a4,0(s2)
   13c10:	0909                	add	s2,s2,2
   13c12:	eb15                	bnez	a4,13c46 <emul+0x29e>
   13c14:	fef91ce3          	bne	s2,a5,13c0c <emul+0x264>
   13c18:	b555                	j	13abc <emul+0x114>
   13c1a:	01040713          	add	a4,s0,16
   13c1e:	87a2                	mv	a5,s0
   13c20:	0789                	add	a5,a5,2
   13c22:	fe079f23          	sh	zero,-2(a5)
   13c26:	fef71de3          	bne	a4,a5,13c20 <emul+0x278>
   13c2a:	77f1                	lui	a5,0xffffc
   13c2c:	00f41823          	sh	a5,16(s0)
   13c30:	77e1                	lui	a5,0xffff8
   13c32:	fff7c793          	not	a5,a5
   13c36:	00f41923          	sh	a5,18(s0)
   13c3a:	bd45                	j	13aea <emul+0x142>
   13c3c:	00f85813          	srl	a6,a6,0xf
   13c40:	b7f1                	j	13c0c <emul+0x264>
   13c42:	4801                	li	a6,0
   13c44:	bd85                	j	13ab4 <emul+0x10c>
   13c46:	4781                	li	a5,0
   13c48:	bda5                	j	13ac0 <emul+0x118>
   13c4a:	8736                	mv	a4,a3
   13c4c:	66a1                	lui	a3,0x8
   13c4e:	16fd                	add	a3,a3,-1 # 7fff <exit-0x80e9>
   13c50:	b51d                	j	13a76 <emul+0xce>
   13c52:	89a6                	mv	s3,s1
   13c54:	02015783          	lhu	a5,32(sp)
   13c58:	0104949b          	sllw	s1,s1,0x10
   13c5c:	038a8a13          	add	s4,s5,56
   13c60:	8fc5                	or	a5,a5,s1
   13c62:	02faaa23          	sw	a5,52(s5)
   13c66:	034a8493          	add	s1,s5,52
   13c6a:	87d2                	mv	a5,s4
   13c6c:	04ea8713          	add	a4,s5,78
   13c70:	00079023          	sh	zero,0(a5) # ffffffffffff8000 <__BSS_END__+0xfffffffffffd8490>
   13c74:	0789                	add	a5,a5,2
   13c76:	fee79de3          	bne	a5,a4,13c70 <emul+0x2c8>
   13c7a:	04ca8c93          	add	s9,s5,76
   13c7e:	4c01                	li	s8,0
   13c80:	01810b13          	add	s6,sp,24
   13c84:	00410d13          	add	s10,sp,4
   13c88:	04210b93          	add	s7,sp,66
   13c8c:	000b5503          	lhu	a0,0(s6)
   13c90:	1b79                	add	s6,s6,-2
   13c92:	e925                	bnez	a0,13d02 <emul+0x35a>
   13c94:	04cad783          	lhu	a5,76(s5)
   13c98:	8766                	mv	a4,s9
   13c9a:	00fc6c33          	or	s8,s8,a5
   13c9e:	ffe75603          	lhu	a2,-2(a4)
   13ca2:	1779                	add	a4,a4,-2
   13ca4:	00c71123          	sh	a2,2(a4)
   13ca8:	feea1be3          	bne	s4,a4,13c9e <emul+0x2f6>
   13cac:	020a9c23          	sh	zero,56(s5)
   13cb0:	fdab1ee3          	bne	s6,s10,13c8c <emul+0x2e4>
   13cb4:	101c                	add	a5,sp,32
   13cb6:	03a10693          	add	a3,sp,58
   13cba:	0004d703          	lhu	a4,0(s1)
   13cbe:	0789                	add	a5,a5,2
   13cc0:	0489                	add	s1,s1,2
   13cc2:	fee79f23          	sh	a4,-2(a5)
   13cc6:	fef69ae3          	bne	a3,a5,13cba <emul+0x312>
   13cca:	76f1                	lui	a3,0xffffc
   13ccc:	994e                	add	s2,s2,s3
   13cce:	0689                	add	a3,a3,2 # ffffffffffffc002 <__BSS_END__+0xfffffffffffdc492>
   13cd0:	85e2                	mv	a1,s8
   13cd2:	1008                	add	a0,sp,32
   13cd4:	87d6                	mv	a5,s5
   13cd6:	04000713          	li	a4,64
   13cda:	96ca                	add	a3,a3,s2
   13cdc:	4601                	li	a2,0
   13cde:	b18ff0ef          	jal	12ff6 <emdnorm>
   13ce2:	02015703          	lhu	a4,32(sp)
   13ce6:	00015783          	lhu	a5,0(sp)
   13cea:	85a2                	mv	a1,s0
   13cec:	1008                	add	a0,sp,32
   13cee:	8f99                	sub	a5,a5,a4
   13cf0:	00f037b3          	snez	a5,a5
   13cf4:	40f007bb          	negw	a5,a5
   13cf8:	02f11023          	sh	a5,32(sp)
   13cfc:	e9ffe0ef          	jal	12b9a <emovo.constprop.0>
   13d00:	b3ed                	j	13aea <emul+0x142>
   13d02:	0090                	add	a2,sp,64
   13d04:	100c                	add	a1,sp,32
   13d06:	e2dfe0ef          	jal	12b32 <m16m>
   13d0a:	8566                	mv	a0,s9
   13d0c:	4581                	li	a1,0
   13d0e:	08b0                	add	a2,sp,88
   13d10:	00055783          	lhu	a5,0(a0)
   13d14:	00065703          	lhu	a4,0(a2)
   13d18:	1579                	add	a0,a0,-2
   13d1a:	1679                	add	a2,a2,-2
   13d1c:	973e                	add	a4,a4,a5
   13d1e:	972e                	add	a4,a4,a1
   13d20:	01075593          	srl	a1,a4,0x10
   13d24:	00e51123          	sh	a4,2(a0)
   13d28:	8985                	and	a1,a1,1
   13d2a:	ff7613e3          	bne	a2,s7,13d10 <emul+0x368>
   13d2e:	b79d                	j	13c94 <emul+0x2ec>
